Component: ARM Compiler 5.05 update 1 (build 106) Tool: armlink [4d0efa]

==============================================================================

Section Cross References

    stm32f4xx_gpio.o(i.GPIO_DeInit) refers to stm32f4xx_rcc.o(i.RCC_AHB1PeriphResetCmd) for RCC_AHB1PeriphResetCmd
    stm32f4xx_rcc.o(i.RCC_GetClocksFreq) refers to stm32f4xx_rcc.o(.data) for APBAHBPrescTable
    stm32f4xx_rcc.o(i.RCC_WaitForHSEStartUp) refers to stm32f4xx_rcc.o(i.RCC_GetFlagStatus) for RCC_GetFlagStatus
    stm32f4xx_syscfg.o(i.SYSCFG_DeInit) refers to stm32f4xx_rcc.o(i.RCC_APB2PeriphResetCmd) for RCC_APB2PeriphResetCmd
    stm32f4xx_usart.o(i.USART_DeInit) refers to stm32f4xx_rcc.o(i.RCC_APB2PeriphResetCmd) for RCC_APB2PeriphResetCmd
    stm32f4xx_usart.o(i.USART_DeInit) refers to stm32f4xx_rcc.o(i.RCC_APB1PeriphResetCmd) for RCC_APB1PeriphResetCmd
    stm32f4xx_usart.o(i.USART_Init) refers to stm32f4xx_rcc.o(i.RCC_GetClocksFreq) for RCC_GetClocksFreq
    stm32f4xx_i2c.o(i.I2C_DeInit) refers to stm32f4xx_rcc.o(i.RCC_APB1PeriphResetCmd) for RCC_APB1PeriphResetCmd
    stm32f4xx_i2c.o(i.I2C_Init) refers to stm32f4xx_rcc.o(i.RCC_GetClocksFreq) for RCC_GetClocksFreq
    stm32f4xx_spi.o(i.SPI_I2S_DeInit) refers to stm32f4xx_rcc.o(i.RCC_APB2PeriphResetCmd) for RCC_APB2PeriphResetCmd
    stm32f4xx_spi.o(i.SPI_I2S_DeInit) refers to stm32f4xx_rcc.o(i.RCC_APB1PeriphResetCmd) for RCC_APB1PeriphResetCmd
    stm32f4xx_tim.o(i.TIM_DeInit) refers to stm32f4xx_rcc.o(i.RCC_APB2PeriphResetCmd) for RCC_APB2PeriphResetCmd
    stm32f4xx_tim.o(i.TIM_DeInit) refers to stm32f4xx_rcc.o(i.RCC_APB1PeriphResetCmd) for RCC_APB1PeriphResetCmd
    stm32f4xx_tim.o(i.TIM_ETRClockMode1Config) refers to stm32f4xx_tim.o(i.TIM_ETRConfig) for TIM_ETRConfig
    stm32f4xx_tim.o(i.TIM_ETRClockMode2Config) refers to stm32f4xx_tim.o(i.TIM_ETRConfig) for TIM_ETRConfig
    stm32f4xx_tim.o(i.TIM_ICInit) refers to stm32f4xx_tim.o(i.TI1_Config) for TI1_Config
    stm32f4xx_tim.o(i.TIM_ICInit) refers to stm32f4xx_tim.o(i.TIM_SetIC1Prescaler) for TIM_SetIC1Prescaler
    stm32f4xx_tim.o(i.TIM_ICInit) refers to stm32f4xx_tim.o(i.TI2_Config) for TI2_Config
    stm32f4xx_tim.o(i.TIM_ICInit) refers to stm32f4xx_tim.o(i.TIM_SetIC2Prescaler) for TIM_SetIC2Prescaler
    stm32f4xx_tim.o(i.TIM_ICInit) refers to stm32f4xx_tim.o(i.TI3_Config) for TI3_Config
    stm32f4xx_tim.o(i.TIM_ICInit) refers to stm32f4xx_tim.o(i.TIM_SetIC3Prescaler) for TIM_SetIC3Prescaler
    stm32f4xx_tim.o(i.TIM_ICInit) refers to stm32f4xx_tim.o(i.TI4_Config) for TI4_Config
    stm32f4xx_tim.o(i.TIM_ICInit) refers to stm32f4xx_tim.o(i.TIM_SetIC4Prescaler) for TIM_SetIC4Prescaler
    stm32f4xx_tim.o(i.TIM_ITRxExternalClockConfig) refers to stm32f4xx_tim.o(i.TIM_SelectInputTrigger) for TIM_SelectInputTrigger
    stm32f4xx_tim.o(i.TIM_PWMIConfig) refers to stm32f4xx_tim.o(i.TI1_Config) for TI1_Config
    stm32f4xx_tim.o(i.TIM_PWMIConfig) refers to stm32f4xx_tim.o(i.TIM_SetIC1Prescaler) for TIM_SetIC1Prescaler
    stm32f4xx_tim.o(i.TIM_PWMIConfig) refers to stm32f4xx_tim.o(i.TI2_Config) for TI2_Config
    stm32f4xx_tim.o(i.TIM_PWMIConfig) refers to stm32f4xx_tim.o(i.TIM_SetIC2Prescaler) for TIM_SetIC2Prescaler
    stm32f4xx_tim.o(i.TIM_TIxExternalClockConfig) refers to stm32f4xx_tim.o(i.TI2_Config) for TI2_Config
    stm32f4xx_tim.o(i.TIM_TIxExternalClockConfig) refers to stm32f4xx_tim.o(i.TI1_Config) for TI1_Config
    stm32f4xx_tim.o(i.TIM_TIxExternalClockConfig) refers to stm32f4xx_tim.o(i.TIM_SelectInputTrigger) for TIM_SelectInputTrigger
    stm32f4xx_flash.o(i.FLASH_EraseAllBank1Sectors) refers to stm32f4xx_flash.o(i.FLASH_WaitForLastOperation) for FLASH_WaitForLastOperation
    stm32f4xx_flash.o(i.FLASH_EraseAllBank2Sectors) refers to stm32f4xx_flash.o(i.FLASH_WaitForLastOperation) for FLASH_WaitForLastOperation
    stm32f4xx_flash.o(i.FLASH_EraseAllSectors) refers to stm32f4xx_flash.o(i.FLASH_WaitForLastOperation) for FLASH_WaitForLastOperation
    stm32f4xx_flash.o(i.FLASH_EraseSector) refers to stm32f4xx_flash.o(i.FLASH_WaitForLastOperation) for FLASH_WaitForLastOperation
    stm32f4xx_flash.o(i.FLASH_OB_Launch) refers to stm32f4xx_flash.o(i.FLASH_WaitForLastOperation) for FLASH_WaitForLastOperation
    stm32f4xx_flash.o(i.FLASH_OB_PCROP1Config) refers to stm32f4xx_flash.o(i.FLASH_WaitForLastOperation) for FLASH_WaitForLastOperation
    stm32f4xx_flash.o(i.FLASH_OB_PCROPConfig) refers to stm32f4xx_flash.o(i.FLASH_WaitForLastOperation) for FLASH_WaitForLastOperation
    stm32f4xx_flash.o(i.FLASH_OB_RDPConfig) refers to stm32f4xx_flash.o(i.FLASH_WaitForLastOperation) for FLASH_WaitForLastOperation
    stm32f4xx_flash.o(i.FLASH_OB_UserConfig) refers to stm32f4xx_flash.o(i.FLASH_WaitForLastOperation) for FLASH_WaitForLastOperation
    stm32f4xx_flash.o(i.FLASH_OB_WRP1Config) refers to stm32f4xx_flash.o(i.FLASH_WaitForLastOperation) for FLASH_WaitForLastOperation
    stm32f4xx_flash.o(i.FLASH_OB_WRPConfig) refers to stm32f4xx_flash.o(i.FLASH_WaitForLastOperation) for FLASH_WaitForLastOperation
    stm32f4xx_flash.o(i.FLASH_ProgramByte) refers to stm32f4xx_flash.o(i.FLASH_WaitForLastOperation) for FLASH_WaitForLastOperation
    stm32f4xx_flash.o(i.FLASH_ProgramDoubleWord) refers to stm32f4xx_flash.o(i.FLASH_WaitForLastOperation) for FLASH_WaitForLastOperation
    stm32f4xx_flash.o(i.FLASH_ProgramHalfWord) refers to stm32f4xx_flash.o(i.FLASH_WaitForLastOperation) for FLASH_WaitForLastOperation
    stm32f4xx_flash.o(i.FLASH_ProgramWord) refers to stm32f4xx_flash.o(i.FLASH_WaitForLastOperation) for FLASH_WaitForLastOperation
    stm32f4xx_flash.o(i.FLASH_WaitForLastOperation) refers to stm32f4xx_flash.o(i.FLASH_GetStatus) for FLASH_GetStatus
    stm32f4xx_pwr.o(i.PWR_DeInit) refers to stm32f4xx_rcc.o(i.RCC_APB1PeriphResetCmd) for RCC_APB1PeriphResetCmd
    commdata.o(i.Com2SendData) refers to hw_config.o(i.USART_DMA_TX_Configuration) for USART_DMA_TX_Configuration
    commdata.o(i.Com2SendData) refers to hw_config.o(i.SendDriver) for SendDriver
    commdata.o(i.Com2SendData) refers to main.o(.data) for COM_Flag
    commdata.o(i.Com2SendData) refers to main.o(.bss) for TDM_TX_Data
    commdata.o(i.Command_Handle) refers to main.o(.bss) for TDM_Rx_Data
    commdata.o(i.Command_Handle) refers to commdata.o(.data) for TDM_Rx_Counter
    commdata.o(i.Command_Handle) refers to main.o(.data) for Command_Rx_Max
    commdata.o(i.GetCrcData) refers to main.o(.bss) for TDM_TX_Data
    commdata.o(i.HandleKeyOn) refers to getgps.o(i.GpsGsvClose) for GpsGsvClose
    commdata.o(i.HandleKeyOn) refers to getgps.o(i.GpsGLOpen) for GpsGLOpen
    commdata.o(i.HandleKeyOn) refers to main.o(.data) for Key_Rx_Counter
    commdata.o(i.HandleKeyOn) refers to main.o(.bss) for Key_Rx_Data
    commdata.o(i.HandleKeyOn) refers to globalvars.o(.bss) for g_GINavInfo
    commdata.o(i.HandleKeyOn) refers to hw_config.o(i.USART_Configuration) for USART_Configuration
    commdata.o(i.HandleKeyOn) refers to getgps.o(i.GpsGsvOpen) for GpsGsvOpen
    commdata.o(i.HandlePassOn) refers to hw_config.o(i.USART_Configuration) for USART_Configuration
    commdata.o(i.HandlePassOn) refers to main.o(.data) for Pass_Rx_Counter
    commdata.o(i.HandlePassOn) refers to main.o(.bss) for Pass_Rx_Data
    commdata.o(i.HandleUpdata) refers to main.o(.data) for Up_Rx_Counter
    commdata.o(i.HandleUpdata) refers to main.o(.bss) for Up_Rx_Data
    commdata.o(i.HandleUserData) refers to commdata.o(i.Command_Handle) for Command_Handle
    commdata.o(i.HandleUserData) refers to commdata.o(i.HandlePassOn) for HandlePassOn
    commdata.o(i.HandleUserData) refers to commdata.o(i.HandleUpdata) for HandleUpdata
    commdata.o(i.HandleUserData) refers to commdata.o(i.HandleKeyOn) for HandleKeyOn
    commdata.o(i.HandleUserData) refers to stm32f4xx_usart.o(i.USART_SendData) for USART_SendData
    commdata.o(i.HandleUserData) refers to main.o(.data) for Up_On_Flag
    commdata.o(i.HandleUserData) refers to main.o(.bss) for GINavResult
    commdata.o(i.ProcessVTOA) refers to main.o(.bss) for GGA_Data
    commdata.o(i.ProcessVTOA) refers to commdata.o(.data) for i
    commdata.o(i.SendData) refers to commdata.o(i.GetCrcData) for GetCrcData
    commdata.o(i.SendData) refers to main.o(.data) for AHRSComFlag
    commdata.o(i.SendData) refers to main.o(.bss) for TDM_TX_Data
    commdata.o(i.SendText) refers to stm32f4xx_usart.o(i.USART_SendData) for USART_SendData
    commdata.o(i.SendText) refers to stm32f4xx_usart.o(i.USART_GetFlagStatus) for USART_GetFlagStatus
    commdata.o(i.SendText) refers to main.o(.data) for Uart_Kind
    commdata.o(i.SendText) refers to commdata.o(.data) for i
    commdata.o(i.SendText) refers to main.o(.bss) for TDM_TX_Data
    commdata.o(i.SendVersion) refers to commdata.o(i.Serial_PutString) for Serial_PutString
    commdata.o(i.SendVersion) refers to commdata.o(i.ProcessVTOA) for ProcessVTOA
    commdata.o(i.SendVersion) refers to commdata.o(i.SendText) for SendText
    commdata.o(i.SendVersion) refers to main.o(.data) for User_Kind
    commdata.o(i.SendVersion) refers to commdata.o(.conststring) for .conststring
    commdata.o(i.SendVersion) refers to main.o(.bss) for GGA_Data
    commdata.o(i.SerialPutChar) refers to stm32f4xx_usart.o(i.USART_SendData) for USART_SendData
    commdata.o(i.SerialPutChar) refers to stm32f4xx_usart.o(i.USART_GetFlagStatus) for USART_GetFlagStatus
    commdata.o(i.SerialPutChar) refers to main.o(.data) for Uart_Kind
    commdata.o(i.Serial_PutString) refers to commdata.o(i.SerialPutChar) for SerialPutChar
    main.o(i.ApluCode) refers to 24cxx.o(i._alpu_rand) for _alpu_rand
    main.o(i.ApluCode) refers to alpu-c-0ff.o(.text) for alpuc_process
    main.o(i.ApluCode) refers to main.o(.data) for Ttx_data
    main.o(i.Data_Ini) refers to main.o(.data) for DIni_Flag
    main.o(i.main) refers to misc.o(i.NVIC_SetVectorTable) for NVIC_SetVectorTable
    main.o(i.main) refers to stmflash.o(i.Update_Flash_INI) for Update_Flash_INI
    main.o(i.main) refers to stmflash.o(i.STMFLASH_Write) for STMFLASH_Write
    main.o(i.main) refers to main.o(i.Data_Ini) for Data_Ini
    main.o(i.main) refers to encryptid.o(i.Check_Lock_Code) for Check_Lock_Code
    main.o(i.main) refers to delay.o(i.delay_init) for delay_init
    main.o(i.main) refers to hw_config.o(i.Set_System) for Set_System
    main.o(i.main) refers to delay.o(i.delay_ms) for delay_ms
    main.o(i.main) refers to main.o(i.ApluCode) for ApluCode
    main.o(i.main) refers to stmflash.o(i.MisAngle_Flash_Decode) for MisAngle_Flash_Decode
    main.o(i.main) refers to stmflash.o(i.Data_Flash_Decode) for Data_Flash_Decode
    main.o(i.main) refers to hw_config.o(i.USART_Configuration) for USART_Configuration
    main.o(i.main) refers to commdata.o(i.SendVersion) for SendVersion
    main.o(i.main) refers to getacc.o(i.Acc_Ini) for Acc_Ini
    main.o(i.main) refers to getgyr.o(i.Gyr_Ini) for Gyr_Ini
    main.o(i.main) refers to getacc.o(i.BMI160_Ini) for BMI160_Ini
    main.o(i.main) refers to ginavmain.o(i.GINavInit) for GINavInit
    main.o(i.main) refers to hw_config.o(i.NVIC_Configuration) for NVIC_Configuration
    main.o(i.main) refers to getgps.o(i.GPS_Rate_Config) for GPS_Rate_Config
    main.o(i.main) refers to getgps.o(i.GpsConfig2) for GpsConfig2
    main.o(i.main) refers to getacc.o(i.Interrupt_Any_motion) for Interrupt_Any_motion
    main.o(i.main) refers to eeprom.o(i.EEPROM_Check) for EEPROM_Check
    main.o(i.main) refers to eeprom.o(i.EEPROM_Write) for EEPROM_Write
    main.o(i.main) refers to stm32f4xx_rcc.o(i.RCC_APB1PeriphClockCmd) for RCC_APB1PeriphClockCmd
    main.o(i.main) refers to stm32f4xx_pwr.o(i.PWR_EnterSTOPMode) for PWR_EnterSTOPMode
    main.o(i.main) refers to stm32f4xx_rcc.o(i.RCC_AHB1PeriphClockCmd) for RCC_AHB1PeriphClockCmd
    main.o(i.main) refers to stm32f4xx_rcc.o(i.RCC_APB2PeriphClockCmd) for RCC_APB2PeriphClockCmd
    main.o(i.main) refers to stm32f4xx_pwr.o(i.PWR_ClearFlag) for PWR_ClearFlag
    main.o(i.main) refers to stm32f4xx_pwr.o(i.PWR_WakeUpPinCmd) for PWR_WakeUpPinCmd
    main.o(i.main) refers to stm32f4xx_pwr.o(i.PWR_EnterSTANDBYMode) for PWR_EnterSTANDBYMode
    main.o(i.main) refers to ginavmain.o(i.GINavProc) for GINavProc
    main.o(i.main) refers to sendgps.o(i.Pack_GnssData) for Pack_GnssData
    main.o(i.main) refers to sendgps.o(i.Send_GnssData) for Send_GnssData
    main.o(i.main) refers to sendgps.o(i.Send_GSAData) for Send_GSAData
    main.o(i.main) refers to commdata.o(i.SendData) for SendData
    main.o(i.main) refers to commdata.o(i.Com2SendData) for Com2SendData
    main.o(i.main) refers to stmflash.o(i.Data_Flash_Save) for Data_Flash_Save
    main.o(i.main) refers to stmflash.o(i.Update_Flash_Save) for Update_Flash_Save
    main.o(i.main) refers to stmflash.o(i.MisAngle_Flash_Save) for MisAngle_Flash_Save
    main.o(i.main) refers to main.o(.data) for Update_One
    main.o(i.main) refers to main.o(.bss) for Flash_Wdata
    main.o(i.main) refers to main.o(.constdata) for TEXT_Buffer
    stm32f4xx_it.o(i.DMA2_Stream7_IRQHandler) refers to stm32f4xx_dma.o(i.DMA_GetFlagStatus) for DMA_GetFlagStatus
    stm32f4xx_it.o(i.DMA2_Stream7_IRQHandler) refers to stm32f4xx_dma.o(i.DMA_ClearFlag) for DMA_ClearFlag
    stm32f4xx_it.o(i.DMA2_Stream7_IRQHandler) refers to stm32f4xx_dma.o(i.DMA_Cmd) for DMA_Cmd
    stm32f4xx_it.o(i.DMA2_Stream7_IRQHandler) refers to stm32f4xx_it.o(i.DMA_Finish) for DMA_Finish
    stm32f4xx_it.o(i.DMA_Finish) refers to main.o(.data) for DMA_Send_Kind
    stm32f4xx_it.o(i.EXTI0_IRQHandler) refers to stm32f4xx_exti.o(i.EXTI_GetITStatus) for EXTI_GetITStatus
    stm32f4xx_it.o(i.EXTI15_10_IRQHandler) refers to stm32f4xx_exti.o(i.EXTI_GetITStatus) for EXTI_GetITStatus
    stm32f4xx_it.o(i.EXTI15_10_IRQHandler) refers to system_stm32f4xx.o(i.SystemInit) for SystemInit
    stm32f4xx_it.o(i.EXTI15_10_IRQHandler) refers to delay.o(i.delay_ms) for delay_ms
    stm32f4xx_it.o(i.EXTI15_10_IRQHandler) refers to hw_config.o(i.NVIC_Configuration) for NVIC_Configuration
    stm32f4xx_it.o(i.EXTI15_10_IRQHandler) refers to stm32f4xx_exti.o(i.EXTI_ClearITPendingBit) for EXTI_ClearITPendingBit
    stm32f4xx_it.o(i.Handle_Ini) refers to main.o(.data) for GGA_Ini_Flag
    stm32f4xx_it.o(i.Message_Ack_handle) refers to stm32f4xx_it.o(.data) for Message_Rx_Counter
    stm32f4xx_it.o(i.Message_Ack_handle) refers to stm32f4xx_it.o(.bss) for Message_Rx_Data
    stm32f4xx_it.o(i.Message_Ack_handle) refers to main.o(.data) for GGA_Config_flag
    stm32f4xx_it.o(i.TIM2_IRQHandler) refers to stm32f4xx_tim.o(i.TIM_ClearITPendingBit) for TIM_ClearITPendingBit
    stm32f4xx_it.o(i.TIM2_IRQHandler) refers to getimu.o(i.Get_BMI055_Data) for Get_BMI055_Data
    stm32f4xx_it.o(i.TIM2_IRQHandler) refers to getimu.o(i.Send_IMUData) for Send_IMUData
    stm32f4xx_it.o(i.TIM2_IRQHandler) refers to getimu.o(i.Pack_IMUData) for Pack_IMUData
    stm32f4xx_it.o(i.TIM2_IRQHandler) refers to getimu.o(i.Data_Synch) for Data_Synch
    stm32f4xx_it.o(i.TIM2_IRQHandler) refers to getnass.o(i.Analyse_GpsData) for Analyse_GpsData
    stm32f4xx_it.o(i.TIM2_IRQHandler) refers to getgps.o(i.Send_GPSData) for Send_GPSData
    stm32f4xx_it.o(i.TIM2_IRQHandler) refers to sendgps.o(i.Pack_Send_Debug) for Pack_Send_Debug
    stm32f4xx_it.o(i.TIM2_IRQHandler) refers to main.o(.data) for DIni_Flag
    stm32f4xx_it.o(i.TIM3_IRQHandler) refers to stm32f4xx_tim.o(i.TIM_ClearITPendingBit) for TIM_ClearITPendingBit
    stm32f4xx_it.o(i.TIM3_IRQHandler) refers to stm32f4xx_iwdg.o(i.IWDG_ReloadCounter) for IWDG_ReloadCounter
    stm32f4xx_it.o(i.TIM3_IRQHandler) refers to getgps.o(i.Gps_Receive_Handle) for Gps_Receive_Handle
    stm32f4xx_it.o(i.TIM3_IRQHandler) refers to stm32f4xx_it.o(i.Handle_Ini) for Handle_Ini
    stm32f4xx_it.o(i.TIM3_IRQHandler) refers to main.o(.data) for T1times
    stm32f4xx_it.o(i.TIM3_IRQHandler) refers to stm32f4xx_it.o(.data) for Dog_Num
    stm32f4xx_it.o(i.USART1_IRQHandler) refers to stm32f4xx_usart.o(i.USART_GetITStatus) for USART_GetITStatus
    stm32f4xx_it.o(i.USART1_IRQHandler) refers to stm32f4xx_usart.o(i.USART_ClearITPendingBit) for USART_ClearITPendingBit
    stm32f4xx_it.o(i.USART1_IRQHandler) refers to stm32f4xx_usart.o(i.USART_ReceiveData) for USART_ReceiveData
    stm32f4xx_it.o(i.USART1_IRQHandler) refers to commdata.o(i.HandleUserData) for HandleUserData
    stm32f4xx_it.o(i.USART1_IRQHandler) refers to stm32f4xx_it.o(.data) for uart1_data
    stm32f4xx_it.o(i.USART2_IRQHandler) refers to stm32f4xx_usart.o(i.USART_GetITStatus) for USART_GetITStatus
    stm32f4xx_it.o(i.USART2_IRQHandler) refers to stm32f4xx_usart.o(i.USART_ClearITPendingBit) for USART_ClearITPendingBit
    stm32f4xx_it.o(i.USART2_IRQHandler) refers to stm32f4xx_usart.o(i.USART_ReceiveData) for USART_ReceiveData
    stm32f4xx_it.o(i.USART2_IRQHandler) refers to getgps.o(i.HandleGpsData) for HandleGpsData
    stm32f4xx_it.o(i.USART2_IRQHandler) refers to stm32f4xx_it.o(i.Message_Ack_handle) for Message_Ack_handle
    stm32f4xx_it.o(i.USART2_IRQHandler) refers to stm32f4xx_it.o(.data) for uart2_data
    stm32f4xx_it.o(i.USART6_IRQHandler) refers to stm32f4xx_usart.o(i.USART_GetITStatus) for USART_GetITStatus
    stm32f4xx_it.o(i.USART6_IRQHandler) refers to stm32f4xx_usart.o(i.USART_ClearITPendingBit) for USART_ClearITPendingBit
    stm32f4xx_it.o(i.USART6_IRQHandler) refers to stm32f4xx_usart.o(i.USART_ReceiveData) for USART_ReceiveData
    stm32f4xx_it.o(i.USART6_IRQHandler) refers to stm32f4xx_it.o(.data) for uart6_data
    system_stm32f4xx.o(i.SystemCoreClockUpdate) refers to system_stm32f4xx.o(.data) for SystemCoreClock
    system_stm32f4xx.o(i.SystemInit) refers to system_stm32f4xx.o(i.SetSysClock) for SetSysClock
    hw_config.o(i.EXTIX_Init) refers to stm32f4xx_syscfg.o(i.SYSCFG_EXTILineConfig) for SYSCFG_EXTILineConfig
    hw_config.o(i.EXTIX_Init) refers to stm32f4xx_exti.o(i.EXTI_Init) for EXTI_Init
    hw_config.o(i.GPIO_Configuration) refers to stm32f4xx_gpio.o(i.GPIO_PinAFConfig) for GPIO_PinAFConfig
    hw_config.o(i.GPIO_Configuration) refers to stm32f4xx_gpio.o(i.GPIO_Init) for GPIO_Init
    hw_config.o(i.GPIO_Configuration) refers to stm32f4xx_gpio.o(i.GPIO_ResetBits) for GPIO_ResetBits
    hw_config.o(i.I2C_Configuration) refers to myiic.o(i.IIC_Init) for IIC_Init
    hw_config.o(i.NVIC_Configuration) refers to misc.o(i.NVIC_SetVectorTable) for NVIC_SetVectorTable
    hw_config.o(i.NVIC_Configuration) refers to misc.o(i.NVIC_PriorityGroupConfig) for NVIC_PriorityGroupConfig
    hw_config.o(i.NVIC_Configuration) refers to misc.o(i.NVIC_Init) for NVIC_Init
    hw_config.o(i.NVIC_ConfigurationDis) refers to misc.o(i.NVIC_SetVectorTable) for NVIC_SetVectorTable
    hw_config.o(i.NVIC_ConfigurationDis) refers to misc.o(i.NVIC_PriorityGroupConfig) for NVIC_PriorityGroupConfig
    hw_config.o(i.NVIC_ConfigurationDis) refers to misc.o(i.NVIC_Init) for NVIC_Init
    hw_config.o(i.RCC_Configuration) refers to system_stm32f4xx.o(i.SystemInit) for SystemInit
    hw_config.o(i.RCC_Configuration) refers to stm32f4xx_rcc.o(i.RCC_AHB1PeriphClockCmd) for RCC_AHB1PeriphClockCmd
    hw_config.o(i.RCC_Configuration) refers to stm32f4xx_rcc.o(i.RCC_APB1PeriphClockCmd) for RCC_APB1PeriphClockCmd
    hw_config.o(i.RCC_Configuration) refers to stm32f4xx_rcc.o(i.RCC_APB2PeriphClockCmd) for RCC_APB2PeriphClockCmd
    hw_config.o(i.SPI_Configuration) refers to stm32f4xx_spi.o(i.SPI_Init) for SPI_Init
    hw_config.o(i.SPI_Configuration) refers to stm32f4xx_spi.o(i.SPI_Cmd) for SPI_Cmd
    hw_config.o(i.SendDriver) refers to stm32f4xx_dma.o(i.DMA_Cmd) for DMA_Cmd
    hw_config.o(i.SendDriver) refers to main.o(.data) for Uart_Kind
    hw_config.o(i.Set_System) refers to hw_config.o(i.RCC_Configuration) for RCC_Configuration
    hw_config.o(i.Set_System) refers to hw_config.o(i.GPIO_Configuration) for GPIO_Configuration
    hw_config.o(i.Set_System) refers to hw_config.o(i.USART_Configuration) for USART_Configuration
    hw_config.o(i.Set_System) refers to hw_config.o(i.TIM3_Configuration) for TIM3_Configuration
    hw_config.o(i.Set_System) refers to hw_config.o(i.USART_DMA_TX_Configuration) for USART_DMA_TX_Configuration
    hw_config.o(i.Set_System) refers to hw_config.o(i.SPI_Configuration) for SPI_Configuration
    hw_config.o(i.Set_System) refers to hw_config.o(i.I2C_Configuration) for I2C_Configuration
    hw_config.o(i.Set_System) refers to hw_config.o(i.EXTIX_Init) for EXTIX_Init
    hw_config.o(i.Set_System) refers to main.o(.bss) for TDM_TX_Data
    hw_config.o(i.TIM3_Configuration) refers to stm32f4xx_tim.o(i.TIM_TimeBaseInit) for TIM_TimeBaseInit
    hw_config.o(i.TIM3_Configuration) refers to stm32f4xx_tim.o(i.TIM_ITConfig) for TIM_ITConfig
    hw_config.o(i.TIM3_Configuration) refers to stm32f4xx_tim.o(i.TIM_Cmd) for TIM_Cmd
    hw_config.o(i.USART_Configuration) refers to stm32f4xx_usart.o(i.USART_Init) for USART_Init
    hw_config.o(i.USART_Configuration) refers to stm32f4xx_usart.o(i.USART_Cmd) for USART_Cmd
    hw_config.o(i.USART_Configuration) refers to stm32f4xx_usart.o(i.USART_ClearFlag) for USART_ClearFlag
    hw_config.o(i.USART_Configuration) refers to stm32f4xx_usart.o(i.USART_ITConfig) for USART_ITConfig
    hw_config.o(i.USART_Configuration) refers to stm32f4xx_usart.o(i.USART_DMACmd) for USART_DMACmd
    hw_config.o(i.USART_Configuration) refers to main.o(.data) for Debug_Flag
    hw_config.o(i.USART_DMA_TX_Configuration) refers to stm32f4xx_dma.o(i.DMA_DeInit) for DMA_DeInit
    hw_config.o(i.USART_DMA_TX_Configuration) refers to stm32f4xx_dma.o(i.DMA_GetCmdStatus) for DMA_GetCmdStatus
    hw_config.o(i.USART_DMA_TX_Configuration) refers to stm32f4xx_dma.o(i.DMA_Init) for DMA_Init
    hw_config.o(i.USART_DMA_TX_Configuration) refers to stm32f4xx_dma.o(i.DMA_ITConfig) for DMA_ITConfig
    hw_config.o(i.USART_DMA_TX_Configuration) refers to stm32f4xx_usart.o(i.USART_DMACmd) for USART_DMACmd
    hw_config.o(i.USART_DMA_TX_Configuration) refers to main.o(.data) for DMA_Tx_Num
    24cxx.o(i.AT24CXX_Check) refers to 24cxx.o(i.AT24CXX_ReadOneByte) for AT24CXX_ReadOneByte
    24cxx.o(i.AT24CXX_Check) refers to 24cxx.o(i.AT24CXX_WriteOneByte) for AT24CXX_WriteOneByte
    24cxx.o(i.AT24CXX_Check) refers to 24cxx.o(.data) for check1
    24cxx.o(i.AT24CXX_Init) refers to myiic.o(i.IIC_Init) for IIC_Init
    24cxx.o(i.AT24CXX_Read) refers to 24cxx.o(i.AT24CXX_ReadOneByte) for AT24CXX_ReadOneByte
    24cxx.o(i.AT24CXX_ReadLenByte) refers to 24cxx.o(i.AT24CXX_ReadOneByte) for AT24CXX_ReadOneByte
    24cxx.o(i.AT24CXX_ReadOneByte) refers to myiic.o(i.IIC_Start) for IIC_Start
    24cxx.o(i.AT24CXX_ReadOneByte) refers to myiic.o(i.IIC_Send_Byte) for IIC_Send_Byte
    24cxx.o(i.AT24CXX_ReadOneByte) refers to myiic.o(i.IIC_Wait_Ack) for IIC_Wait_Ack
    24cxx.o(i.AT24CXX_ReadOneByte) refers to myiic.o(i.IIC_Read_Byte) for IIC_Read_Byte
    24cxx.o(i.AT24CXX_ReadOneByte) refers to myiic.o(i.IIC_Stop) for IIC_Stop
    24cxx.o(i.AT24CXX_ReadOneByte) refers to 24cxx.o(.data) for adress
    24cxx.o(i.AT24CXX_Write) refers to 24cxx.o(i.AT24CXX_WriteOneByte) for AT24CXX_WriteOneByte
    24cxx.o(i.AT24CXX_WriteLenByte) refers to 24cxx.o(i.AT24CXX_WriteOneByte) for AT24CXX_WriteOneByte
    24cxx.o(i.AT24CXX_WriteOneByte) refers to myiic.o(i.IIC_Start) for IIC_Start
    24cxx.o(i.AT24CXX_WriteOneByte) refers to myiic.o(i.IIC_Send_Byte) for IIC_Send_Byte
    24cxx.o(i.AT24CXX_WriteOneByte) refers to myiic.o(i.IIC_Wait_Ack) for IIC_Wait_Ack
    24cxx.o(i.AT24CXX_WriteOneByte) refers to myiic.o(i.IIC_Stop) for IIC_Stop
    24cxx.o(i.AT24CXX_WriteOneByte) refers to delay.o(i.delay_ms) for delay_ms
    24cxx.o(i.AT24CXX_WriteOneByte) refers to 24cxx.o(.data) for adress
    24cxx.o(i.II2C_ReadOneByte) refers to myiic.o(i.IIC_Start) for IIC_Start
    24cxx.o(i.II2C_ReadOneByte) refers to myiic.o(i.IIC_Send_Byte) for IIC_Send_Byte
    24cxx.o(i.II2C_ReadOneByte) refers to myiic.o(i.IIC_Wait_Ack) for IIC_Wait_Ack
    24cxx.o(i.II2C_ReadOneByte) refers to myiic.o(i.IIC_Read_Byte) for IIC_Read_Byte
    24cxx.o(i.II2C_ReadOneByte) refers to myiic.o(i.IIC_Stop) for IIC_Stop
    24cxx.o(i.II2C_ReadOneByte) refers to 24cxx.o(.data) for adress
    24cxx.o(i.II2C_WriteOneByte) refers to myiic.o(i.IIC_Start) for IIC_Start
    24cxx.o(i.II2C_WriteOneByte) refers to myiic.o(i.IIC_Send_Byte) for IIC_Send_Byte
    24cxx.o(i.II2C_WriteOneByte) refers to myiic.o(i.IIC_Wait_Ack) for IIC_Wait_Ack
    24cxx.o(i.II2C_WriteOneByte) refers to myiic.o(i.IIC_Stop) for IIC_Stop
    24cxx.o(i.II2C_WriteOneByte) refers to delay.o(i.delay_ms) for delay_ms
    24cxx.o(i.II2C_WriteOneByte) refers to 24cxx.o(.data) for adress
    24cxx.o(i._alpu_delay_ms) refers to delay.o(i.delay_ms) for delay_ms
    24cxx.o(i._alpu_rand) refers to rand.o(.text) for srand
    24cxx.o(i._alpu_rand) refers to main.o(.data) for Gyr_Z
    24cxx.o(i._alpu_rand) refers to 24cxx.o(.data) for seed
    24cxx.o(i._i2c_read) refers to myiic.o(i.IIC_Start) for IIC_Start
    24cxx.o(i._i2c_read) refers to myiic.o(i.IIC_Send_Byte) for IIC_Send_Byte
    24cxx.o(i._i2c_read) refers to myiic.o(i.IIC_Wait_Ack) for IIC_Wait_Ack
    24cxx.o(i._i2c_read) refers to myiic.o(i.IIC_Read_Byte) for IIC_Read_Byte
    24cxx.o(i._i2c_read) refers to myiic.o(i.IIC_Stop) for IIC_Stop
    24cxx.o(i._i2c_write) refers to myiic.o(i.IIC_Start) for IIC_Start
    24cxx.o(i._i2c_write) refers to myiic.o(i.IIC_Send_Byte) for IIC_Send_Byte
    24cxx.o(i._i2c_write) refers to myiic.o(i.IIC_Wait_Ack) for IIC_Wait_Ack
    24cxx.o(i._i2c_write) refers to myiic.o(i.IIC_Stop) for IIC_Stop
    24cxx.o(i._i2c_write) refers to delay.o(i.delay_ms) for delay_ms
    delay.o(i.delay_init) refers to misc.o(i.SysTick_CLKSourceConfig) for SysTick_CLKSourceConfig
    delay.o(i.delay_init) refers to delay.o(.data) for fac_us
    delay.o(i.delay_ms) refers to delay.o(i.delay_xms) for delay_xms
    delay.o(i.delay_us) refers to delay.o(.data) for fac_us
    delay.o(i.delay_xms) refers to delay.o(.data) for fac_ms
    spi.o(i.SPI_ADS_SendData) refers to stm32f4xx_spi.o(i.SPI_I2S_GetFlagStatus) for SPI_I2S_GetFlagStatus
    spi.o(i.SPI_ADS_SendData) refers to stm32f4xx_spi.o(i.SPI_I2S_SendData) for SPI_I2S_SendData
    spi.o(i.SPI_ADS_SendData) refers to stm32f4xx_spi.o(i.SPI_I2S_ReceiveData) for SPI_I2S_ReceiveData
    stmflash.o(i.Data_Flash_Decode) refers to stmflash.o(i.STMFLASH_Read) for STMFLASH_Read
    stmflash.o(i.Data_Flash_Decode) refers to stmflash.o(i.Para_Flash_Decode) for Para_Flash_Decode
    stmflash.o(i.Data_Flash_Decode) refers to main.o(.bss) for Flash_Rdata
    stmflash.o(i.Data_Flash_Save) refers to stmflash.o(i.Para_Flash_INI) for Para_Flash_INI
    stmflash.o(i.Data_Flash_Save) refers to stmflash.o(i.STMFLASH_Read) for STMFLASH_Read
    stmflash.o(i.Data_Flash_Save) refers to stmflash.o(i.STMFLASH_Write) for STMFLASH_Write
    stmflash.o(i.Data_Flash_Save) refers to main.o(.data) for Data_Flash_W_Flag
    stmflash.o(i.Data_Flash_Save) refers to main.o(.bss) for Flash_Rdata
    stmflash.o(i.MisAngle_Flash_Decode) refers to stmflash.o(i.STMFLASH_Read) for STMFLASH_Read
    stmflash.o(i.MisAngle_Flash_Decode) refers to stmflash.o(i.Buftodouble) for Buftodouble
    stmflash.o(i.MisAngle_Flash_Decode) refers to cdcmple.o(.text) for __aeabi_cdcmpeq
    stmflash.o(i.MisAngle_Flash_Decode) refers to main.o(.bss) for Flash_Rdata
    stmflash.o(i.MisAngle_Flash_Decode) refers to main.o(.data) for ANG_DGet_Flag
    stmflash.o(i.MisAngle_Flash_INI) refers to dmul.o(.text) for __aeabi_dmul
    stmflash.o(i.MisAngle_Flash_INI) refers to dfixi.o(.text) for __aeabi_d2iz
    stmflash.o(i.MisAngle_Flash_INI) refers to main.o(.data) for ANG_FGet_Flag
    stmflash.o(i.MisAngle_Flash_INI) refers to main.o(.bss) for Flash_Wdata
    stmflash.o(i.MisAngle_Flash_Save) refers to hw_config.o(i.NVIC_ConfigurationDis) for NVIC_ConfigurationDis
    stmflash.o(i.MisAngle_Flash_Save) refers to stmflash.o(i.MisAngle_Flash_INI) for MisAngle_Flash_INI
    stmflash.o(i.MisAngle_Flash_Save) refers to stmflash.o(i.STMFLASH_Read) for STMFLASH_Read
    stmflash.o(i.MisAngle_Flash_Save) refers to stmflash.o(i.STMFLASH_Write) for STMFLASH_Write
    stmflash.o(i.MisAngle_Flash_Save) refers to hw_config.o(i.NVIC_Configuration) for NVIC_Configuration
    stmflash.o(i.MisAngle_Flash_Save) refers to main.o(.data) for MAngle_Flash_W_Flag
    stmflash.o(i.MisAngle_Flash_Save) refers to main.o(.bss) for Flash_Rdata
    stmflash.o(i.Para_Data_Protection) refers to main.o(.data) for Data_Sort
    stmflash.o(i.Para_Flash_Decode) refers to stmflash.o(i.Para_Data_Protection) for Para_Data_Protection
    stmflash.o(i.Para_Flash_Decode) refers to main.o(.bss) for Flash_Rdata
    stmflash.o(i.Para_Flash_Decode) refers to main.o(.data) for HVersionH
    stmflash.o(i.Para_Flash_INI) refers to main.o(.data) for HVersionH
    stmflash.o(i.Para_Flash_INI) refers to main.o(.bss) for Flash_Wdata
    stmflash.o(i.STMFLASH_Read) refers to stmflash.o(i.STMFLASH_ReadWord) for STMFLASH_ReadWord
    stmflash.o(i.STMFLASH_Write) refers to stm32f4xx_flash.o(i.FLASH_Unlock) for FLASH_Unlock
    stmflash.o(i.STMFLASH_Write) refers to stm32f4xx_flash.o(i.FLASH_DataCacheCmd) for FLASH_DataCacheCmd
    stmflash.o(i.STMFLASH_Write) refers to stmflash.o(i.STMFLASH_ReadWord) for STMFLASH_ReadWord
    stmflash.o(i.STMFLASH_Write) refers to stmflash.o(i.STMFLASH_GetFlashSector) for STMFLASH_GetFlashSector
    stmflash.o(i.STMFLASH_Write) refers to stm32f4xx_flash.o(i.FLASH_EraseSector) for FLASH_EraseSector
    stmflash.o(i.STMFLASH_Write) refers to stm32f4xx_flash.o(i.FLASH_ProgramWord) for FLASH_ProgramWord
    stmflash.o(i.STMFLASH_Write) refers to stm32f4xx_flash.o(i.FLASH_Lock) for FLASH_Lock
    stmflash.o(i.Update_Flash_INI) refers to main.o(.data) for Update_One
    stmflash.o(i.Update_Flash_INI) refers to main.o(.bss) for Flash_Wdata
    stmflash.o(i.Update_Flash_Save) refers to hw_config.o(i.NVIC_ConfigurationDis) for NVIC_ConfigurationDis
    stmflash.o(i.Update_Flash_Save) refers to stmflash.o(i.Update_Flash_INI) for Update_Flash_INI
    stmflash.o(i.Update_Flash_Save) refers to stmflash.o(i.STMFLASH_Write) for STMFLASH_Write
    stmflash.o(i.Update_Flash_Save) refers to hw_config.o(i.NVIC_Configuration) for NVIC_Configuration
    stmflash.o(i.Update_Flash_Save) refers to stmflash.o(i.SoftReset) for SoftReset
    stmflash.o(i.Update_Flash_Save) refers to main.o(.data) for Update_Flash_W_Flag
    stmflash.o(i.Update_Flash_Save) refers to main.o(.bss) for Flash_Wdata
    getnass.o(i.Analyse_GpsData) refers to stm32f4xx_iwdg.o(i.IWDG_ReloadCounter) for IWDG_ReloadCounter
    getnass.o(i.Analyse_GpsData) refers to dmul.o(.text) for __aeabi_dmul
    getnass.o(i.Analyse_GpsData) refers to d2f.o(.text) for __aeabi_d2f
    getnass.o(i.Analyse_GpsData) refers to cdrcmple.o(.text) for __aeabi_cdrcmple
    getnass.o(i.Analyse_GpsData) refers to getnass.o(i.GetDiffAgeData) for GetDiffAgeData
    getnass.o(i.Analyse_GpsData) refers to main.o(.data) for GpsDriverAnalyseFlag
    getnass.o(i.Analyse_GpsData) refers to main.o(.bss) for GPGGAData
    getnass.o(i.Analyse_GpsData) refers to getnass.o(.data) for GGA_GGet_Flag
    getnass.o(i.Analyse_GpsData) refers to sin.o(i.__hardfp_sin) for __hardfp_sin
    getnass.o(i.Analyse_GpsData) refers to cos.o(i.__hardfp_cos) for __hardfp_cos
    getnass.o(i.Analyse_GpsData) refers to f2d.o(.text) for __aeabi_f2d
    getnass.o(i.Analyse_GpsData) refers to sqrt.o(i.__hardfp_sqrt) for __hardfp_sqrt
    getnass.o(i.GetDiffAgeData) refers to main.o(.data) for GetAgeDataFlag
    getnass.o(i.GetDiffAgeData) refers to main.o(.bss) for GINavResult
    getnass.o(i.GetDiffAgeData) refers to getnass.o(.data) for AgeFirst
    getgps.o(i.Flag_Clear) refers to main.o(.data) for GGA_Config_flag
    getgps.o(i.GPS_Rate_Config) refers to hw_config.o(i.USART_Configuration) for USART_Configuration
    getgps.o(i.GPS_Rate_Config) refers to getgps.o(i.GpsBautConfig) for GpsBautConfig
    getgps.o(i.GPS_Rate_Config) refers to main.o(.data) for USART2_BodRate
    getgps.o(i.Get_GGA_RMC_GST) refers to main.o(.bss) for m_GSPData
    getgps.o(i.Get_GGA_RMC_GST) refers to main.o(.data) for m_GSPData_NumB
    getgps.o(i.Get_GSA_GAV) refers to main.o(.bss) for m_GSPData
    getgps.o(i.Get_GSA_GAV) refers to main.o(.data) for m_GSPData_NumB
    getgps.o(i.Get_RMC_Data) refers to main.o(.bss) for m_GSPData
    getgps.o(i.Get_RMC_Data) refers to main.o(.data) for m_GSPData_NumB
    getgps.o(i.GpsBDOpen) refers to getgps.o(i.SendConfigMessage) for SendConfigMessage
    getgps.o(i.GpsBDOpen) refers to getgps.o(i.Flag_Clear) for Flag_Clear
    getgps.o(i.GpsBDOpen) refers to commdata.o(i.Serial_PutString) for Serial_PutString
    getgps.o(i.GpsBDOpen) refers to delay.o(i.delay_ms) for delay_ms
    getgps.o(i.GpsBDOpen) refers to main.o(.data) for timer_start_flag
    getgps.o(i.GpsBautConfig) refers to stm32f4xx_usart.o(i.USART_ITConfig) for USART_ITConfig
    getgps.o(i.GpsBautConfig) refers to getgps.o(i.SendConfigMessage) for SendConfigMessage
    getgps.o(i.GpsBautConfig) refers to delay.o(i.delay_ms) for delay_ms
    getgps.o(i.GpsConfig2) refers to stm32f4xx_usart.o(i.USART_ITConfig) for USART_ITConfig
    getgps.o(i.GpsConfig2) refers to commdata.o(i.Serial_PutString) for Serial_PutString
    getgps.o(i.GpsConfig2) refers to getgps.o(i.SendConfigMessage) for SendConfigMessage
    getgps.o(i.GpsConfig2) refers to getgps.o(i.Flag_Clear) for Flag_Clear
    getgps.o(i.GpsConfig2) refers to getgps.o(i.GPS_Rate_Config) for GPS_Rate_Config
    getgps.o(i.GpsConfig2) refers to delay.o(i.delay_ms) for delay_ms
    getgps.o(i.GpsConfig2) refers to main.o(.data) for timer_start_flag
    getgps.o(i.GpsGLOpen) refers to getgps.o(i.SendConfigMessage) for SendConfigMessage
    getgps.o(i.GpsGLOpen) refers to commdata.o(i.Serial_PutString) for Serial_PutString
    getgps.o(i.GpsGLOpen) refers to getgps.o(i.Flag_Clear) for Flag_Clear
    getgps.o(i.GpsGLOpen) refers to main.o(.data) for timer_start_flag
    getgps.o(i.GpsGsvClose) refers to getgps.o(i.SendConfigMessage) for SendConfigMessage
    getgps.o(i.GpsGsvClose) refers to getgps.o(i.Flag_Clear) for Flag_Clear
    getgps.o(i.GpsGsvClose) refers to commdata.o(i.Serial_PutString) for Serial_PutString
    getgps.o(i.GpsGsvClose) refers to main.o(.data) for timer_start_flag
    getgps.o(i.GpsGsvOpen) refers to getgps.o(i.SendConfigMessage) for SendConfigMessage
    getgps.o(i.GpsGsvOpen) refers to getgps.o(i.Flag_Clear) for Flag_Clear
    getgps.o(i.GpsGsvOpen) refers to commdata.o(i.Serial_PutString) for Serial_PutString
    getgps.o(i.GpsGsvOpen) refers to main.o(.data) for timer_start_flag
    getgps.o(i.Gps_Receive_Handle) refers to getgps.o(i.ProcessNMEA) for ProcessNMEA
    getgps.o(i.Gps_Receive_Handle) refers to getgps.o(i.Get_GGA_RMC_GST) for Get_GGA_RMC_GST
    getgps.o(i.Gps_Receive_Handle) refers to getgps.o(i.Get_RMC_Data) for Get_RMC_Data
    getgps.o(i.Gps_Receive_Handle) refers to getgps.o(i.Get_GSA_GAV) for Get_GSA_GAV
    getgps.o(i.Gps_Receive_Handle) refers to main.o(.data) for Gps_No_Num
    getgps.o(i.Gps_Receive_Handle) refers to getgps.o(.data) for i
    getgps.o(i.Gps_Receive_Handle) refers to main.o(.bss) for m_GSPData
    getgps.o(i.HandleGGAOn) refers to main.o(.data) for GGA_Rx_Counter
    getgps.o(i.HandleGGAOn) refers to main.o(.bss) for GGA_Rx_Data
    getgps.o(i.HandleGGAOn) refers to getgps.o(.data) for utc_num
    getgps.o(i.HandleGpsData) refers to getgps.o(i.HandleGpsIni) for HandleGpsIni
    getgps.o(i.HandleGpsData) refers to getgps.o(i.HandleGGAOn) for HandleGGAOn
    getgps.o(i.HandleGpsData) refers to getgps.o(i.SaveGpsData) for SaveGpsData
    getgps.o(i.HandleGpsIni) refers to main.o(.data) for Gps_No_Num
    getgps.o(i.ProcessCommand) refers to strcmp.o(.text) for strcmp
    getgps.o(i.ProcessCommand) refers to getgps.o(i.ProcessGPGGA) for ProcessGPGGA
    getgps.o(i.ProcessCommand) refers to getgps.o(i.ProcessGPRMC) for ProcessGPRMC
    getgps.o(i.ProcessCommand) refers to getgps.o(i.ProcessGPVTG) for ProcessGPVTG
    getgps.o(i.ProcessCommand) refers to getgps.o(i.ProcessGPZDA) for ProcessGPZDA
    getgps.o(i.ProcessCommand) refers to getgps.o(i.ProcessGPGST) for ProcessGPGST
    getgps.o(i.ProcessCommand) refers to getgps.o(i.ProcessGPGSA) for ProcessGPGSA
    getgps.o(i.ProcessCommand) refers to getgps.o(i.ProcessGPGSV) for ProcessGPGSV
    getgps.o(i.ProcessCommand) refers to main.o(.bss) for m_GPSpData
    getgps.o(i.ProcessGPGGA) refers to getgps.o(i.GetField) for GetField
    getgps.o(i.ProcessGPGGA) refers to atoi.o(.text) for atoi
    getgps.o(i.ProcessGPGGA) refers to getgps.o(i.DataJudge) for DataJudge
    getgps.o(i.ProcessGPGGA) refers to atof.o(i.__hardfp_atof) for __hardfp_atof
    getgps.o(i.ProcessGPGGA) refers to ddiv.o(.text) for __aeabi_ddiv
    getgps.o(i.ProcessGPGGA) refers to dadd.o(.text) for __aeabi_dadd
    getgps.o(i.ProcessGPGGA) refers to main.o(.bss) for GPGGAData
    getgps.o(i.ProcessGPGGA) refers to main.o(.data) for GetAgeDataFlag
    getgps.o(i.ProcessGPGGA) refers to getgps.o(.data) for Gps_GError_Flag
    getgps.o(i.ProcessGPGSA) refers to getgps.o(i.GetField) for GetField
    getgps.o(i.ProcessGPGSA) refers to atoi.o(.text) for atoi
    getgps.o(i.ProcessGPGSA) refers to atof.o(i.__hardfp_atof) for __hardfp_atof
    getgps.o(i.ProcessGPGSA) refers to main.o(.bss) for GPGSAData
    getgps.o(i.ProcessGPGSA) refers to getgps.o(.data) for i
    getgps.o(i.ProcessGPGSA) refers to main.o(.data) for GSA_Get_Flag
    getgps.o(i.ProcessGPGST) refers to getgps.o(i.GetField) for GetField
    getgps.o(i.ProcessGPGST) refers to atof.o(i.__hardfp_atof) for __hardfp_atof
    getgps.o(i.ProcessGPGST) refers to d2f.o(.text) for __aeabi_d2f
    getgps.o(i.ProcessGPGST) refers to main.o(.bss) for GPGSTData
    getgps.o(i.ProcessGPGST) refers to main.o(.data) for GST_Get_Flag
    getgps.o(i.ProcessGPGSV) refers to getgps.o(i.GetField) for GetField
    getgps.o(i.ProcessGPGSV) refers to atoi.o(.text) for atoi
    getgps.o(i.ProcessGPGSV) refers to getgps.o(.data) for i
    getgps.o(i.ProcessGPGSV) refers to main.o(.bss) for GPGSVData
    getgps.o(i.ProcessGPGSV) refers to main.o(.data) for GSV_Get_Flag
    getgps.o(i.ProcessGPRMC) refers to getgps.o(i.GetField) for GetField
    getgps.o(i.ProcessGPRMC) refers to atoi.o(.text) for atoi
    getgps.o(i.ProcessGPRMC) refers to getgps.o(i.DataJudge) for DataJudge
    getgps.o(i.ProcessGPRMC) refers to atof.o(i.__hardfp_atof) for __hardfp_atof
    getgps.o(i.ProcessGPRMC) refers to ddiv.o(.text) for __aeabi_ddiv
    getgps.o(i.ProcessGPRMC) refers to dadd.o(.text) for __aeabi_dadd
    getgps.o(i.ProcessGPRMC) refers to main.o(.bss) for GPRMCData
    getgps.o(i.ProcessGPRMC) refers to getgps.o(.data) for Gps_GError_Flag
    getgps.o(i.ProcessGPRMC) refers to main.o(.data) for RMC_Get_Flag
    getgps.o(i.ProcessGPVTG) refers to getgps.o(i.GetField) for GetField
    getgps.o(i.ProcessGPVTG) refers to getgps.o(i.DataJudge) for DataJudge
    getgps.o(i.ProcessGPVTG) refers to atof.o(i.__hardfp_atof) for __hardfp_atof
    getgps.o(i.ProcessGPVTG) refers to main.o(.bss) for GPVTGData
    getgps.o(i.ProcessGPVTG) refers to main.o(.data) for VTG_Get_Flag
    getgps.o(i.ProcessGPZDA) refers to getgps.o(i.GetField) for GetField
    getgps.o(i.ProcessGPZDA) refers to atoi.o(.text) for atoi
    getgps.o(i.ProcessGPZDA) refers to main.o(.bss) for GPZDAData
    getgps.o(i.ProcessNMEA) refers to getgps.o(i.ProcessCommand) for ProcessCommand
    getgps.o(i.ProcessNMEA) refers to getgps.o(.data) for m_nState
    getgps.o(i.ProcessNMEA) refers to main.o(.bss) for m_GPSpData
    getgps.o(i.SaveGpsData) refers to main.o(.data) for m_GSPData_Num
    getgps.o(i.SaveGpsData) refers to main.o(.bss) for m_GSPData
    getgps.o(i.SendConfigMessage) refers to getgps.o(.bss) for Gps_Command_Data
    getgps.o(i.SendConfigMessage) refers to getgps.o(.data) for Com_TX_Num
    getgps.o(i.SendConfigMessage) refers to stm32f4xx_usart.o(i.USART_SendData) for USART_SendData
    getgps.o(i.SendConfigMessage) refers to stm32f4xx_usart.o(i.USART_GetFlagStatus) for USART_GetFlagStatus
    getgps.o(i.Send_GPSData) refers to hw_config.o(i.USART_DMA_TX_Configuration) for USART_DMA_TX_Configuration
    getgps.o(i.Send_GPSData) refers to hw_config.o(i.SendDriver) for SendDriver
    getgps.o(i.Send_GPSData) refers to main.o(.data) for GpsDriverSendFlag
    getgps.o(i.Send_GPSData) refers to main.o(.bss) for m_GSPDataB
    getacc.o(i.Acc_Ini) refers to main.o(.data) for User_Kind
    getacc.o(i.BMI160_Ini) refers to stm32f4xx_gpio.o(i.GPIO_SetBits) for GPIO_SetBits
    getacc.o(i.BMI160_Ini) refers to delay.o(i.delay_us) for delay_us
    getacc.o(i.BMI160_Ini) refers to stm32f4xx_gpio.o(i.GPIO_ResetBits) for GPIO_ResetBits
    getacc.o(i.BMI160_Ini) refers to spi.o(i.SPI_ADS_SendData) for SPI_ADS_SendData
    getacc.o(i.BMI160_Ini) refers to getacc.o(.data) for ID
    getacc.o(i.Checkout_2Pi) refers to main.o(.data) for pi
    getacc.o(i.Checkout_Pi) refers to main.o(.data) for pi
    getacc.o(i.Checkout_a2g) refers to getacc.o(.data) for First
    getacc.o(i.Checkout_p2g) refers to getacc.o(.data) for First
    getacc.o(i.Checkout_r2g) refers to getacc.o(.data) for First
    getacc.o(i.ConvertorPAcc) refers to main.o(.data) for XAccBias
    getacc.o(i.ConvertorPAngle) refers to f2d.o(.text) for __aeabi_f2d
    getacc.o(i.ConvertorPAngle) refers to asin.o(i.__hardfp_asin) for __hardfp_asin
    getacc.o(i.ConvertorPAngle) refers to d2f.o(.text) for __aeabi_d2f
    getacc.o(i.ConvertorRAcc) refers to main.o(.data) for YAccBias
    getacc.o(i.ConvertorRAngle) refers to f2d.o(.text) for __aeabi_f2d
    getacc.o(i.ConvertorRAngle) refers to atan2.o(i.__hardfp_atan2) for __hardfp_atan2
    getacc.o(i.ConvertorRAngle) refers to d2f.o(.text) for __aeabi_d2f
    getacc.o(i.ConvertorRAngle) refers to getacc.o(.data) for AcceratorData
    getacc.o(i.ConvertorZAcc) refers to main.o(.data) for ZAccBias
    getacc.o(i.CoordChangeA) refers to getacc.o(i.Convert_Acc_Data) for Convert_Acc_Data
    getacc.o(i.CoordChangeA) refers to main.o(.data) for ProductKind
    getacc.o(i.Get_Acc_XYZ) refers to getacc.o(i.ConvertorPAcc) for ConvertorPAcc
    getacc.o(i.Get_Acc_XYZ) refers to getacc.o(i.ConvertorRAcc) for ConvertorRAcc
    getacc.o(i.Get_Acc_XYZ) refers to getacc.o(i.ConvertorZAcc) for ConvertorZAcc
    getacc.o(i.Get_Acc_XYZ) refers to getacc.o(i.Checkout_p2g) for Checkout_p2g
    getacc.o(i.Get_Acc_XYZ) refers to getacc.o(i.Checkout_r2g) for Checkout_r2g
    getacc.o(i.Get_Acc_XYZ) refers to getacc.o(i.Checkout_a2g) for Checkout_a2g
    getacc.o(i.Get_Acc_XYZ) refers to main.o(.data) for ACC_X
    getacc.o(i.Get_Angle_XYZ) refers to getacc.o(i.ConvertorPAngle) for ConvertorPAngle
    getacc.o(i.Get_Angle_XYZ) refers to getacc.o(i.ConvertorRAngle) for ConvertorRAngle
    getacc.o(i.Get_Angle_XYZ) refers to getacc.o(i.Checkout_Pi) for Checkout_Pi
    getacc.o(i.Get_Angle_XYZ) refers to getacc.o(i.Checkout_2Pi) for Checkout_2Pi
    getacc.o(i.Get_Angle_XYZ) refers to main.o(.data) for intPitchAcc
    getacc.o(i.Get_BMI160A_Data) refers to stm32f4xx_gpio.o(i.GPIO_SetBits) for GPIO_SetBits
    getacc.o(i.Get_BMI160A_Data) refers to delay.o(i.delay_us) for delay_us
    getacc.o(i.Get_BMI160A_Data) refers to stm32f4xx_gpio.o(i.GPIO_ResetBits) for GPIO_ResetBits
    getacc.o(i.Get_BMI160A_Data) refers to spi.o(i.SPI_ADS_SendData) for SPI_ADS_SendData
    getacc.o(i.Get_BMI160A_Data) refers to getacc.o(i.CoordChangeA) for CoordChangeA
    getacc.o(i.Get_BMI160A_Data) refers to main.o(.data) for BMI160A_Rx
    getacc.o(i.Interrupt_Any_motion) refers to stm32f4xx_gpio.o(i.GPIO_SetBits) for GPIO_SetBits
    getacc.o(i.Interrupt_Any_motion) refers to delay.o(i.delay_us) for delay_us
    getacc.o(i.Interrupt_Any_motion) refers to stm32f4xx_gpio.o(i.GPIO_ResetBits) for GPIO_ResetBits
    getacc.o(i.Interrupt_Any_motion) refers to spi.o(i.SPI_ADS_SendData) for SPI_ADS_SendData
    getacc.o(i.Interrupt_Close) refers to stm32f4xx_gpio.o(i.GPIO_SetBits) for GPIO_SetBits
    getacc.o(i.Interrupt_Close) refers to delay.o(i.delay_us) for delay_us
    getacc.o(i.Interrupt_Close) refers to stm32f4xx_gpio.o(i.GPIO_ResetBits) for GPIO_ResetBits
    getacc.o(i.Interrupt_Close) refers to spi.o(i.SPI_ADS_SendData) for SPI_ADS_SendData
    getacc.o(i.Interrupt_Tap_sensing) refers to stm32f4xx_gpio.o(i.GPIO_SetBits) for GPIO_SetBits
    getacc.o(i.Interrupt_Tap_sensing) refers to delay.o(i.delay_us) for delay_us
    getacc.o(i.Interrupt_Tap_sensing) refers to stm32f4xx_gpio.o(i.GPIO_ResetBits) for GPIO_ResetBits
    getacc.o(i.Interrupt_Tap_sensing) refers to spi.o(i.SPI_ADS_SendData) for SPI_ADS_SendData
    getgyr.o(i.Checkout_PGyr) refers to getgyr.o(.data) for First
    getgyr.o(i.Checkout_RGyr) refers to getgyr.o(.data) for First
    getgyr.o(i.Checkout_YGyr) refers to getgyr.o(.data) for First
    getgyr.o(i.CoordChangeG) refers to main.o(.data) for ProductKind
    getgyr.o(i.Get_BMI160G_Data) refers to stm32f4xx_gpio.o(i.GPIO_ResetBits) for GPIO_ResetBits
    getgyr.o(i.Get_BMI160G_Data) refers to delay.o(i.delay_us) for delay_us
    getgyr.o(i.Get_BMI160G_Data) refers to spi.o(i.SPI_ADS_SendData) for SPI_ADS_SendData
    getgyr.o(i.Get_BMI160G_Data) refers to stm32f4xx_gpio.o(i.GPIO_SetBits) for GPIO_SetBits
    getgyr.o(i.Get_BMI160G_Data) refers to getgyr.o(i.CoordChangeG) for CoordChangeG
    getgyr.o(i.Get_BMI160G_Data) refers to main.o(.data) for BMI160G_Rx
    getgyr.o(i.Get_Rate_Data) refers to getgyr.o(i.ConvertorGyrData) for ConvertorGyrData
    getgyr.o(i.Get_Rate_Data) refers to getgyr.o(i.Checkout_PGyr) for Checkout_PGyr
    getgyr.o(i.Get_Rate_Data) refers to getgyr.o(i.Checkout_RGyr) for Checkout_RGyr
    getgyr.o(i.Get_Rate_Data) refers to getgyr.o(i.Checkout_YGyr) for Checkout_YGyr
    getgyr.o(i.Get_Rate_Data) refers to main.o(.data) for GyrScale_Y
    getgyr.o(i.Get_Yaw_Data) refers to main.o(.data) for Up_On_Flag
    getgyr.o(i.Gyr_Ini) refers to main.o(.data) for GyrBias_X
    myiic.o(i.Hard_IICWaiteStandby) refers to stm32f4xx_i2c.o(i.I2C_GenerateSTART) for I2C_GenerateSTART
    myiic.o(i.Hard_IICWaiteStandby) refers to stm32f4xx_i2c.o(i.I2C_Send7bitAddress) for I2C_Send7bitAddress
    myiic.o(i.Hard_IICWaiteStandby) refers to stm32f4xx_i2c.o(i.I2C_ClearFlag) for I2C_ClearFlag
    myiic.o(i.Hard_IICWaiteStandby) refers to stm32f4xx_i2c.o(i.I2C_GenerateSTOP) for I2C_GenerateSTOP
    myiic.o(i.Hard_IICWriteOneByte) refers to stm32f4xx_i2c.o(i.I2C_GenerateSTOP) for I2C_GenerateSTOP
    myiic.o(i.Hard_IICWriteOneByte) refers to stm32f4xx_i2c.o(i.I2C_GetFlagStatus) for I2C_GetFlagStatus
    myiic.o(i.Hard_IICWriteOneByte) refers to stm32f4xx_i2c.o(i.I2C_GenerateSTART) for I2C_GenerateSTART
    myiic.o(i.Hard_IICWriteOneByte) refers to stm32f4xx_i2c.o(i.I2C_CheckEvent) for I2C_CheckEvent
    myiic.o(i.Hard_IICWriteOneByte) refers to stm32f4xx_i2c.o(i.I2C_Send7bitAddress) for I2C_Send7bitAddress
    myiic.o(i.Hard_IICWriteOneByte) refers to stm32f4xx_i2c.o(i.I2C_SendData) for I2C_SendData
    myiic.o(i.Hard_IIC_PageRead) refers to stm32f4xx_i2c.o(i.I2C_GenerateSTOP) for I2C_GenerateSTOP
    myiic.o(i.Hard_IIC_PageRead) refers to stm32f4xx_i2c.o(i.I2C_GetFlagStatus) for I2C_GetFlagStatus
    myiic.o(i.Hard_IIC_PageRead) refers to stm32f4xx_i2c.o(i.I2C_GenerateSTART) for I2C_GenerateSTART
    myiic.o(i.Hard_IIC_PageRead) refers to stm32f4xx_i2c.o(i.I2C_CheckEvent) for I2C_CheckEvent
    myiic.o(i.Hard_IIC_PageRead) refers to stm32f4xx_i2c.o(i.I2C_Send7bitAddress) for I2C_Send7bitAddress
    myiic.o(i.Hard_IIC_PageRead) refers to stm32f4xx_i2c.o(i.I2C_SendData) for I2C_SendData
    myiic.o(i.Hard_IIC_PageRead) refers to stm32f4xx_i2c.o(i.I2C_AcknowledgeConfig) for I2C_AcknowledgeConfig
    myiic.o(i.Hard_IIC_PageRead) refers to stm32f4xx_i2c.o(i.I2C_ReceiveData) for I2C_ReceiveData
    myiic.o(i.Hard_IIC_ReadOneByte) refers to stm32f4xx_i2c.o(i.I2C_GenerateSTOP) for I2C_GenerateSTOP
    myiic.o(i.Hard_IIC_ReadOneByte) refers to stm32f4xx_i2c.o(i.I2C_GetFlagStatus) for I2C_GetFlagStatus
    myiic.o(i.Hard_IIC_ReadOneByte) refers to stm32f4xx_i2c.o(i.I2C_GenerateSTART) for I2C_GenerateSTART
    myiic.o(i.Hard_IIC_ReadOneByte) refers to stm32f4xx_i2c.o(i.I2C_CheckEvent) for I2C_CheckEvent
    myiic.o(i.Hard_IIC_ReadOneByte) refers to stm32f4xx_i2c.o(i.I2C_Send7bitAddress) for I2C_Send7bitAddress
    myiic.o(i.Hard_IIC_ReadOneByte) refers to stm32f4xx_i2c.o(i.I2C_SendData) for I2C_SendData
    myiic.o(i.Hard_IIC_ReadOneByte) refers to stm32f4xx_i2c.o(i.I2C_AcknowledgeConfig) for I2C_AcknowledgeConfig
    myiic.o(i.Hard_IIC_ReadOneByte) refers to stm32f4xx_i2c.o(i.I2C_ReceiveData) for I2C_ReceiveData
    myiic.o(i.Hard_IIC_WriteNByte) refers to stm32f4xx_i2c.o(i.I2C_GenerateSTOP) for I2C_GenerateSTOP
    myiic.o(i.Hard_IIC_WriteNByte) refers to stm32f4xx_i2c.o(i.I2C_GetFlagStatus) for I2C_GetFlagStatus
    myiic.o(i.Hard_IIC_WriteNByte) refers to stm32f4xx_i2c.o(i.I2C_GenerateSTART) for I2C_GenerateSTART
    myiic.o(i.Hard_IIC_WriteNByte) refers to stm32f4xx_i2c.o(i.I2C_CheckEvent) for I2C_CheckEvent
    myiic.o(i.Hard_IIC_WriteNByte) refers to stm32f4xx_i2c.o(i.I2C_Send7bitAddress) for I2C_Send7bitAddress
    myiic.o(i.Hard_IIC_WriteNByte) refers to stm32f4xx_i2c.o(i.I2C_SendData) for I2C_SendData
    myiic.o(i.IIC_Ack) refers to delay.o(i.delay_us) for delay_us
    myiic.o(i.IIC_Init) refers to stm32f4xx_rcc.o(i.RCC_AHB1PeriphClockCmd) for RCC_AHB1PeriphClockCmd
    myiic.o(i.IIC_Init) refers to stm32f4xx_gpio.o(i.GPIO_Init) for GPIO_Init
    myiic.o(i.IIC_NAck) refers to delay.o(i.delay_us) for delay_us
    myiic.o(i.IIC_Read_Byte) refers to delay.o(i.delay_us) for delay_us
    myiic.o(i.IIC_Read_Byte) refers to myiic.o(i.IIC_NAck) for IIC_NAck
    myiic.o(i.IIC_Read_Byte) refers to myiic.o(i.IIC_Ack) for IIC_Ack
    myiic.o(i.IIC_Send_Byte) refers to delay.o(i.delay_us) for delay_us
    myiic.o(i.IIC_Start) refers to delay.o(i.delay_us) for delay_us
    myiic.o(i.IIC_Stop) refers to delay.o(i.delay_us) for delay_us
    myiic.o(i.IIC_Wait_Ack) refers to delay.o(i.delay_us) for delay_us
    myiic.o(i.IIC_Wait_Ack) refers to myiic.o(i.IIC_Stop) for IIC_Stop
    getimu.o(i.Change_SensorData) refers to main.o(.bss) for Change_Data
    getimu.o(i.Change_SensorData) refers to getimu.o(.data) for i
    getimu.o(i.Change_Time) refers to main.o(.bss) for Change_Data
    getimu.o(i.Change_Time) refers to getimu.o(.data) for i
    getimu.o(i.Data_Synch) refers to main.o(.data) for FrameFirst
    getimu.o(i.GetUTCTime) refers to main.o(.data) for BaseTime
    getimu.o(i.GetUTCTime) refers to getimu.o(.data) for CFlag
    getimu.o(i.Get_BMI055_Data) refers to getgyr.o(i.Get_BMI160G_Data) for Get_BMI160G_Data
    getimu.o(i.Get_BMI055_Data) refers to getgyr.o(i.Get_Rate_Data) for Get_Rate_Data
    getimu.o(i.Get_BMI055_Data) refers to getgyr.o(i.Get_Yaw_Data) for Get_Yaw_Data
    getimu.o(i.Get_BMI055_Data) refers to getacc.o(i.Get_BMI160A_Data) for Get_BMI160A_Data
    getimu.o(i.Get_BMI055_Data) refers to getacc.o(i.Get_Acc_XYZ) for Get_Acc_XYZ
    getimu.o(i.Get_BMI055_Data) refers to getacc.o(i.Get_Angle_XYZ) for Get_Angle_XYZ
    getimu.o(i.Get_BMI055_Data) refers to getimu.o(i.GetUTCTime) for GetUTCTime
    getimu.o(i.Get_BMI055_Data) refers to getimu.o(i.Save_DATData) for Save_DATData
    getimu.o(i.Get_BMI055_Data) refers to getimu.o(i.Save_IMUData) for Save_IMUData
    getimu.o(i.Get_BMI055_Data) refers to getimu.o(i.Save_ALLIMUData) for Save_ALLIMUData
    getimu.o(i.Get_BMI055_Data) refers to main.o(.data) for IMU_Flag
    getimu.o(i.IMDAT_Deal) refers to getimu.o(i.ProcessITOAH) for ProcessITOAH
    getimu.o(i.IMDAT_Deal) refers to getimu.o(i.ProcessITOAM) for ProcessITOAM
    getimu.o(i.IMDAT_Deal) refers to main.o(.bss) for IMUTC_Data
    getimu.o(i.IMUData_Deal) refers to getimu.o(i.ProcessITOAH) for ProcessITOAH
    getimu.o(i.IMUData_Deal) refers to getimu.o(i.ProcessITOAM) for ProcessITOAM
    getimu.o(i.IMUData_Deal) refers to getimu.o(i.Change_SensorData) for Change_SensorData
    getimu.o(i.IMUData_Deal) refers to getimu.o(i.Change_Time) for Change_Time
    getimu.o(i.IMUData_Deal) refers to getimu.o(i.ProcessCheckIMU) for ProcessCheckIMU
    getimu.o(i.IMUData_Deal) refers to getimu.o(i.ProcessCheckToAIMU) for ProcessCheckToAIMU
    getimu.o(i.IMUData_Deal) refers to main.o(.bss) for IMU_DATAT
    getimu.o(i.IMUData_Deal) refers to main.o(.data) for User_Kind
    getimu.o(i.IMUData_Deal_New) refers to getimu.o(i.ProcessITOAH) for ProcessITOAH
    getimu.o(i.IMUData_Deal_New) refers to getimu.o(i.ProcessITOAM) for ProcessITOAM
    getimu.o(i.IMUData_Deal_New) refers to getimu.o(i.Change_SensorData) for Change_SensorData
    getimu.o(i.IMUData_Deal_New) refers to getimu.o(i.Change_Time) for Change_Time
    getimu.o(i.IMUData_Deal_New) refers to getimu.o(i.ProcessCheckIMU) for ProcessCheckIMU
    getimu.o(i.IMUData_Deal_New) refers to getimu.o(i.ProcessCheckToAIMU) for ProcessCheckToAIMU
    getimu.o(i.IMUData_Deal_New) refers to main.o(.bss) for IMU_DATAT
    getimu.o(i.IMUData_Deal_New) refers to main.o(.data) for User_Kind
    getimu.o(i.IMU_ALL_DMA) refers to main.o(.data) for User_Kind
    getimu.o(i.IMU_ALL_DMA) refers to getimu.o(.data) for i
    getimu.o(i.IMU_ALL_DMA) refers to main.o(.bss) for IMU_DATAT
    getimu.o(i.Pack_IMUData) refers to dflti.o(.text) for __aeabi_i2d
    getimu.o(i.Pack_IMUData) refers to dmul.o(.text) for __aeabi_dmul
    getimu.o(i.Pack_IMUData) refers to main.o(.data) for GpsDriverImuFlag
    getimu.o(i.Pack_IMUData) refers to getimu.o(.data) for PackFlag
    getimu.o(i.Pack_IMUData) refers to getimu.o(.bss) for IMU_SDatatT
    getimu.o(i.Pack_IMUData) refers to main.o(.bss) for IMU_SData
    getimu.o(i.ProcessCheckIMU) refers to getimu.o(.data) for CheckNum
    getimu.o(i.ProcessCheckIMU) refers to main.o(.bss) for IMU_DATAT
    getimu.o(i.ProcessCheckToAIMU) refers to main.o(.bss) for Change_Data
    getimu.o(i.ProcessCheckToAIMU) refers to getimu.o(.data) for i
    getimu.o(i.ProcessITOAH) refers to main.o(.bss) for Change_Data
    getimu.o(i.ProcessITOAH) refers to getimu.o(.data) for i
    getimu.o(i.ProcessITOAM) refers to main.o(.bss) for Change_Data
    getimu.o(i.ProcessITOAM) refers to getimu.o(.data) for i
    getimu.o(i.Save_ALLIMUData) refers to getimu.o(i.IMDAT_Deal) for IMDAT_Deal
    getimu.o(i.Save_ALLIMUData) refers to getimu.o(i.IMUData_Deal) for IMUData_Deal
    getimu.o(i.Save_ALLIMUData) refers to getimu.o(i.IMU_ALL_DMA) for IMU_ALL_DMA
    getimu.o(i.Save_ALLIMUData) refers to main.o(.data) for User_Kind
    getimu.o(i.Save_DATData) refers to main.o(.data) for SaveTime
    getimu.o(i.Save_DATData) refers to main.o(.bss) for DAT_SData
    getimu.o(i.Save_IMUData) refers to main.o(.data) for SaveTime
    getimu.o(i.Save_IMUData) refers to main.o(.bss) for IMU_SData
    getimu.o(i.Send_IMUData) refers to hw_config.o(i.USART_DMA_TX_Configuration) for USART_DMA_TX_Configuration
    getimu.o(i.Send_IMUData) refers to hw_config.o(i.SendDriver) for SendDriver
    getimu.o(i.Send_IMUData) refers to main.o(.data) for Debug_Flag
    getimu.o(i.Send_IMUData) refers to getimu.o(.data) for Run_Flag
    getimu.o(i.Send_IMUData) refers to main.o(.bss) for m_IMUData
    sendgps.o(i.GetAngle) refers to dmul.o(.text) for __aeabi_dmul
    sendgps.o(i.GetAngle) refers to d2f.o(.text) for __aeabi_d2f
    sendgps.o(i.GetAngle) refers to sendgps.o(i.ProcessSFTOA) for ProcessSFTOA
    sendgps.o(i.GetAngle) refers to sendgps.o(i.ProcessITOA) for ProcessITOA
    sendgps.o(i.GetAngle) refers to commdata.o(i.ProcessVTOA) for ProcessVTOA
    sendgps.o(i.GetAngle) refers to main.o(.bss) for GINavResult
    sendgps.o(i.GetAngle) refers to globalvars.o(.bss) for g_GINavInfo
    sendgps.o(i.GetAngle) refers to sendgps.o(.data) for ATT_UP_Num
    sendgps.o(i.GetAngle) refers to main.o(.data) for SVersionH
    sendgps.o(i.GetAngle) refers to f2d.o(.text) for __aeabi_f2d
    sendgps.o(i.GetAngle) refers to ddiv.o(.text) for __aeabi_ddiv
    sendgps.o(i.GetAngle) refers to sendgps.o(i.ProcessZLSFTOA) for ProcessZLSFTOA
    sendgps.o(i.GetAngle) refers to sendgps.o(i.ProcessCheckResult) for ProcessCheckResult
    sendgps.o(i.GetAngle) refers to sendgps.o(i.ProcessCheckToA) for ProcessCheckToA
    sendgps.o(i.GetAngleDis) refers to sendgps.o(i.ProcessSFTOA) for ProcessSFTOA
    sendgps.o(i.GetAngleDis) refers to sendgps.o(i.ProcessITOA) for ProcessITOA
    sendgps.o(i.GetAngleDis) refers to dmul.o(.text) for __aeabi_dmul
    sendgps.o(i.GetAngleDis) refers to sendgps.o(i.ProcessLatToA) for ProcessLatToA
    sendgps.o(i.GetAngleDis) refers to main.o(.data) for MisAngleData
    sendgps.o(i.GetAngleDis) refers to main.o(.bss) for GGA_Data
    sendgps.o(i.GetAngleDis) refers to sendgps.o(.data) for i
    sendgps.o(i.GetAngleDis) refers to sendgps.o(i.ProcessLongToA) for ProcessLongToA
    sendgps.o(i.GetAngleDis) refers to d2f.o(.text) for __aeabi_d2f
    sendgps.o(i.GetAngleDis) refers to sendgps.o(i.ProcessCheckResult) for ProcessCheckResult
    sendgps.o(i.GetAngleDis) refers to sendgps.o(i.ProcessCheckToA) for ProcessCheckToA
    sendgps.o(i.GetGPRMC) refers to sendgps.o(i.ProcessITOA) for ProcessITOA
    sendgps.o(i.GetGPRMC) refers to sendgps.o(i.ProcessLatToA) for ProcessLatToA
    sendgps.o(i.GetGPRMC) refers to dmul.o(.text) for __aeabi_dmul
    sendgps.o(i.GetGPRMC) refers to sendgps.o(i.ProcessLongToA) for ProcessLongToA
    sendgps.o(i.GetGPRMC) refers to main.o(.bss) for GPRMCData
    sendgps.o(i.GetGPRMC) refers to globalvars.o(.bss) for g_GINavInfo
    sendgps.o(i.GetGPRMC) refers to main.o(.data) for NorthSouthSelect
    sendgps.o(i.GetGPRMC) refers to d2f.o(.text) for __aeabi_d2f
    sendgps.o(i.GetGPRMC) refers to dadd.o(.text) for __aeabi_dadd
    sendgps.o(i.GetGPRMC) refers to sqrt.o(i.__hardfp_sqrt) for __hardfp_sqrt
    sendgps.o(i.GetGPRMC) refers to ddiv.o(.text) for __aeabi_ddiv
    sendgps.o(i.GetGPRMC) refers to sendgps.o(i.ProcessSFTOA) for ProcessSFTOA
    sendgps.o(i.GetGPRMC) refers to sendgps.o(i.ProcessCheckResult) for ProcessCheckResult
    sendgps.o(i.GetGPRMC) refers to sendgps.o(i.ProcessCheckToA) for ProcessCheckToA
    sendgps.o(i.GetGPRMC) refers to sendgps.o(.data) for RMC_TX_Max
    sendgps.o(i.GetGPVTG) refers to d2f.o(.text) for __aeabi_d2f
    sendgps.o(i.GetGPVTG) refers to sendgps.o(i.ProcessZLSFTOA) for ProcessZLSFTOA
    sendgps.o(i.GetGPVTG) refers to dmul.o(.text) for __aeabi_dmul
    sendgps.o(i.GetGPVTG) refers to dadd.o(.text) for __aeabi_dadd
    sendgps.o(i.GetGPVTG) refers to sqrt.o(i.__hardfp_sqrt) for __hardfp_sqrt
    sendgps.o(i.GetGPVTG) refers to ddiv.o(.text) for __aeabi_ddiv
    sendgps.o(i.GetGPVTG) refers to main.o(.bss) for GPVTGData
    sendgps.o(i.GetGPVTG) refers to globalvars.o(.bss) for g_GINavInfo
    sendgps.o(i.GetGPVTG) refers to sendgps.o(.data) for i
    sendgps.o(i.GetGPVTG) refers to sendgps.o(i.ProcessCheckResult) for ProcessCheckResult
    sendgps.o(i.GetGPVTG) refers to sendgps.o(i.ProcessCheckToA) for ProcessCheckToA
    sendgps.o(i.GetGPZDA) refers to sendgps.o(i.ProcessITOA) for ProcessITOA
    sendgps.o(i.GetGPZDA) refers to sendgps.o(i.ProcessIITOA) for ProcessIITOA
    sendgps.o(i.GetGPZDA) refers to sendgps.o(i.ProcessCheckResult) for ProcessCheckResult
    sendgps.o(i.GetGPZDA) refers to sendgps.o(i.ProcessCheckToA) for ProcessCheckToA
    sendgps.o(i.GetGPZDA) refers to main.o(.bss) for GPZDAData
    sendgps.o(i.GetGPZDA) refers to sendgps.o(.data) for i
    sendgps.o(i.GetLGPGGA) refers to sendgps.o(i.ProcessITOA) for ProcessITOA
    sendgps.o(i.GetLGPGGA) refers to sendgps.o(i.ProcessLatToA) for ProcessLatToA
    sendgps.o(i.GetLGPGGA) refers to dmul.o(.text) for __aeabi_dmul
    sendgps.o(i.GetLGPGGA) refers to sendgps.o(i.ProcessLongToA) for ProcessLongToA
    sendgps.o(i.GetLGPGGA) refers to cdcmple.o(.text) for __aeabi_cdcmple
    sendgps.o(i.GetLGPGGA) refers to main.o(.data) for GNGA_DGet_Flag
    sendgps.o(i.GetLGPGGA) refers to main.o(.bss) for GPGGAData
    sendgps.o(i.GetLGPGGA) refers to globalvars.o(.bss) for g_GINavInfo
    sendgps.o(i.GetLGPGGA) refers to sendgps.o(i.ProcessSFTOA) for ProcessSFTOA
    sendgps.o(i.GetLGPGGA) refers to d2f.o(.text) for __aeabi_d2f
    sendgps.o(i.GetLGPGGA) refers to sendgps.o(i.ProcessAgeTOA) for ProcessAgeTOA
    sendgps.o(i.GetLGPGGA) refers to sendgps.o(i.ProcessIITOA) for ProcessIITOA
    sendgps.o(i.GetLGPGGA) refers to sendgps.o(.data) for GGA_UP_Num
    sendgps.o(i.GetLGPGGA) refers to sendgps.o(i.ProcessCheckResult) for ProcessCheckResult
    sendgps.o(i.GetLGPGGA) refers to sendgps.o(i.ProcessCheckToA) for ProcessCheckToA
    sendgps.o(i.GetRMCData) refers to main.o(.data) for ATT_DGet_Flag
    sendgps.o(i.GetRMCData) refers to sendgps.o(.data) for GIRMC_UP_Num
    sendgps.o(i.GetRMCData) refers to main.o(.bss) for m_RMCpData
    sendgps.o(i.Pack_GnssData) refers to sendgps.o(i.GetGPRMC) for GetGPRMC
    sendgps.o(i.Pack_GnssData) refers to sendgps.o(i.GetGPVTG) for GetGPVTG
    sendgps.o(i.Pack_GnssData) refers to sendgps.o(i.GetLGPGGA) for GetLGPGGA
    sendgps.o(i.Pack_GnssData) refers to sendgps.o(i.GetGPZDA) for GetGPZDA
    sendgps.o(i.Pack_GnssData) refers to main.o(.data) for Gnss_Get_Flag
    sendgps.o(i.Pack_Send_Debug) refers to sendgps.o(i.GetAngle) for GetAngle
    sendgps.o(i.Pack_Send_Debug) refers to sendgps.o(i.GetAngleDis) for GetAngleDis
    sendgps.o(i.Pack_Send_Debug) refers to sendgps.o(i.GetRMCData) for GetRMCData
    sendgps.o(i.Pack_Send_Debug) refers to hw_config.o(i.USART_DMA_TX_Configuration) for USART_DMA_TX_Configuration
    sendgps.o(i.Pack_Send_Debug) refers to hw_config.o(i.SendDriver) for SendDriver
    sendgps.o(i.Pack_Send_Debug) refers to main.o(.data) for PackDebug_Flag
    sendgps.o(i.Pack_Send_Debug) refers to sendgps.o(.data) for GSV_UP_Num
    sendgps.o(i.Pack_Send_Debug) refers to main.o(.bss) for TDM_TX_Data
    sendgps.o(i.ProcessATOA) refers to sendgps.o(.data) for Degree
    sendgps.o(i.ProcessATOA) refers to main.o(.data) for GGB_Data
    sendgps.o(i.ProcessATOA) refers to main.o(.bss) for GGA_Data
    sendgps.o(i.ProcessAgeTOA) refers to sendgps.o(.data) for Degree
    sendgps.o(i.ProcessAgeTOA) refers to main.o(.data) for GGB_Data
    sendgps.o(i.ProcessAgeTOA) refers to main.o(.bss) for GGA_Data
    sendgps.o(i.ProcessCheckResult) refers to sendgps.o(.data) for CheckNum
    sendgps.o(i.ProcessCheckResult) refers to main.o(.bss) for TDM_TX_Data
    sendgps.o(i.ProcessCheckToA) refers to main.o(.bss) for GGA_Data
    sendgps.o(i.ProcessCheckToA) refers to sendgps.o(.data) for i
    sendgps.o(i.ProcessIITOA) refers to main.o(.bss) for GGA_Data
    sendgps.o(i.ProcessIITOA) refers to sendgps.o(.data) for i
    sendgps.o(i.ProcessITOA) refers to main.o(.bss) for GGA_Data
    sendgps.o(i.ProcessITOA) refers to sendgps.o(.data) for i
    sendgps.o(i.ProcessLSFTOA) refers to f2d.o(.text) for __aeabi_f2d
    sendgps.o(i.ProcessLSFTOA) refers to sendgps.o(i.ProcessSSFTOA) for ProcessSSFTOA
    sendgps.o(i.ProcessLSFTOA) refers to sendgps.o(.data) for ZF_Flag
    sendgps.o(i.ProcessLSFTOA) refers to main.o(.data) for GGB_Data
    sendgps.o(i.ProcessLSFTOA) refers to main.o(.bss) for GGA_Data
    sendgps.o(i.ProcessLatToA) refers to dfixui.o(.text) for __aeabi_d2uiz
    sendgps.o(i.ProcessLatToA) refers to dfltui.o(.text) for __aeabi_ui2d
    sendgps.o(i.ProcessLatToA) refers to dadd.o(.text) for __aeabi_drsub
    sendgps.o(i.ProcessLatToA) refers to dmul.o(.text) for __aeabi_dmul
    sendgps.o(i.ProcessLatToA) refers to dfixul.o(.text) for __aeabi_d2ulz
    sendgps.o(i.ProcessLatToA) refers to uldiv.o(.text) for __aeabi_uldivmod
    sendgps.o(i.ProcessLatToA) refers to sendgps.o(.data) for Latitude
    sendgps.o(i.ProcessLatToA) refers to main.o(.bss) for GGA_Data
    sendgps.o(i.ProcessLongToA) refers to dfixui.o(.text) for __aeabi_d2uiz
    sendgps.o(i.ProcessLongToA) refers to dfltui.o(.text) for __aeabi_ui2d
    sendgps.o(i.ProcessLongToA) refers to dadd.o(.text) for __aeabi_drsub
    sendgps.o(i.ProcessLongToA) refers to dmul.o(.text) for __aeabi_dmul
    sendgps.o(i.ProcessLongToA) refers to dfixul.o(.text) for __aeabi_d2ulz
    sendgps.o(i.ProcessLongToA) refers to uldiv.o(.text) for __aeabi_uldivmod
    sendgps.o(i.ProcessLongToA) refers to sendgps.o(.data) for Longitude
    sendgps.o(i.ProcessLongToA) refers to main.o(.bss) for GGA_Data
    sendgps.o(i.ProcessPSFTOA) refers to f2d.o(.text) for __aeabi_f2d
    sendgps.o(i.ProcessPSFTOA) refers to sendgps.o(i.ProcessSSFTOA) for ProcessSSFTOA
    sendgps.o(i.ProcessPSFTOA) refers to sendgps.o(.data) for ZF_Flag
    sendgps.o(i.ProcessPSFTOA) refers to main.o(.data) for GGB_Data
    sendgps.o(i.ProcessPSFTOA) refers to main.o(.bss) for GGA_Data
    sendgps.o(i.ProcessSFTOA) refers to sendgps.o(.data) for ZF_Flag
    sendgps.o(i.ProcessSFTOA) refers to main.o(.bss) for GGA_Data
    sendgps.o(i.ProcessSSFTOA) refers to dmul.o(.text) for __aeabi_dmul
    sendgps.o(i.ProcessSSFTOA) refers to dfixul.o(.text) for __aeabi_d2ulz
    sendgps.o(i.ProcessSSFTOA) refers to uldiv.o(.text) for __aeabi_uldivmod
    sendgps.o(i.ProcessSSFTOA) refers to sendgps.o(.data) for AngDot
    sendgps.o(i.ProcessSSFTOA) refers to main.o(.bss) for GGS_Data
    sendgps.o(i.ProcessSSFTOA) refers to ddiv.o(.text) for __aeabi_ddiv
    sendgps.o(i.ProcessSSFTOA) refers to dfixui.o(.text) for __aeabi_d2uiz
    sendgps.o(i.ProcessSSFTOA) refers to dflti.o(.text) for __aeabi_i2d
    sendgps.o(i.ProcessSSFTOA) refers to dadd.o(.text) for __aeabi_dsub
    sendgps.o(i.ProcessZLSFTOA) refers to f2d.o(.text) for __aeabi_f2d
    sendgps.o(i.ProcessZLSFTOA) refers to sendgps.o(i.ProcessSSFTOA) for ProcessSSFTOA
    sendgps.o(i.ProcessZLSFTOA) refers to sendgps.o(.data) for Angle
    sendgps.o(i.ProcessZLSFTOA) refers to main.o(.data) for GGB_Data
    sendgps.o(i.ProcessZLSFTOA) refers to main.o(.bss) for GGA_Data
    sendgps.o(i.Send_GSAData) refers to hw_config.o(i.USART_DMA_TX_Configuration) for USART_DMA_TX_Configuration
    sendgps.o(i.Send_GSAData) refers to hw_config.o(i.SendDriver) for SendDriver
    sendgps.o(i.Send_GSAData) refers to main.o(.data) for GNSS_Send_OK
    sendgps.o(i.Send_GSAData) refers to main.o(.bss) for m_GSPDataB
    sendgps.o(i.Send_GnssData) refers to hw_config.o(i.USART_DMA_TX_Configuration) for USART_DMA_TX_Configuration
    sendgps.o(i.Send_GnssData) refers to hw_config.o(i.SendDriver) for SendDriver
    sendgps.o(i.Send_GnssData) refers to main.o(.data) for Debug_Flag
    sendgps.o(i.Send_GnssData) refers to sendgps.o(.data) for RMC_TX_Max
    sendgps.o(i.Send_GnssData) refers to main.o(.bss) for TDM_TX_Data
    iwdg.o(i.IWDG_Feed) refers to stm32f4xx_iwdg.o(i.IWDG_ReloadCounter) for IWDG_ReloadCounter
    iwdg.o(i.IWDG_Init) refers to stm32f4xx_iwdg.o(i.IWDG_WriteAccessCmd) for IWDG_WriteAccessCmd
    iwdg.o(i.IWDG_Init) refers to stm32f4xx_iwdg.o(i.IWDG_SetPrescaler) for IWDG_SetPrescaler
    iwdg.o(i.IWDG_Init) refers to stm32f4xx_iwdg.o(i.IWDG_SetReload) for IWDG_SetReload
    iwdg.o(i.IWDG_Init) refers to stm32f4xx_iwdg.o(i.IWDG_ReloadCounter) for IWDG_ReloadCounter
    iwdg.o(i.IWDG_Init) refers to stm32f4xx_iwdg.o(i.IWDG_Enable) for IWDG_Enable
    eeprom.o(i.EEPROM_Check) refers to eeprom.o(i.EEPROM_ReadOneByte) for EEPROM_ReadOneByte
    eeprom.o(i.EEPROM_Check) refers to eeprom.o(i.EEPROM_WriteOneByte) for EEPROM_WriteOneByte
    eeprom.o(i.EEPROM_Init) refers to myiic.o(i.IIC_Init) for IIC_Init
    eeprom.o(i.EEPROM_Read) refers to eeprom.o(i.EEPROM_ReadOneByte) for EEPROM_ReadOneByte
    eeprom.o(i.EEPROM_ReadLenByte) refers to eeprom.o(i.EEPROM_ReadOneByte) for EEPROM_ReadOneByte
    eeprom.o(i.EEPROM_ReadOneByte) refers to myiic.o(i.IIC_Start) for IIC_Start
    eeprom.o(i.EEPROM_ReadOneByte) refers to myiic.o(i.IIC_Send_Byte) for IIC_Send_Byte
    eeprom.o(i.EEPROM_ReadOneByte) refers to myiic.o(i.IIC_Wait_Ack) for IIC_Wait_Ack
    eeprom.o(i.EEPROM_ReadOneByte) refers to myiic.o(i.IIC_Read_Byte) for IIC_Read_Byte
    eeprom.o(i.EEPROM_ReadOneByte) refers to myiic.o(i.IIC_Stop) for IIC_Stop
    eeprom.o(i.EEPROM_Write) refers to eeprom.o(i.EEPROM_WriteOneByte) for EEPROM_WriteOneByte
    eeprom.o(i.EEPROM_WriteLenByte) refers to eeprom.o(i.EEPROM_WriteOneByte) for EEPROM_WriteOneByte
    eeprom.o(i.EEPROM_WriteOneByte) refers to myiic.o(i.IIC_Start) for IIC_Start
    eeprom.o(i.EEPROM_WriteOneByte) refers to myiic.o(i.IIC_Send_Byte) for IIC_Send_Byte
    eeprom.o(i.EEPROM_WriteOneByte) refers to myiic.o(i.IIC_Wait_Ack) for IIC_Wait_Ack
    eeprom.o(i.EEPROM_WriteOneByte) refers to myiic.o(i.IIC_Stop) for IIC_Stop
    eeprom.o(i.EEPROM_WriteOneByte) refers to delay.o(i.delay_ms) for delay_ms
    startup_stm32f401xx.o(RESET) refers to startup_stm32f401xx.o(STACK) for __initial_sp
    startup_stm32f401xx.o(RESET) refers to startup_stm32f401xx.o(.text) for Reset_Handler
    startup_stm32f401xx.o(RESET) refers to stm32f4xx_it.o(i.EXTI0_IRQHandler) for EXTI0_IRQHandler
    startup_stm32f401xx.o(RESET) refers to stm32f4xx_it.o(i.TIM2_IRQHandler) for TIM2_IRQHandler
    startup_stm32f401xx.o(RESET) refers to stm32f4xx_it.o(i.TIM3_IRQHandler) for TIM3_IRQHandler
    startup_stm32f401xx.o(RESET) refers to stm32f4xx_it.o(i.USART1_IRQHandler) for USART1_IRQHandler
    startup_stm32f401xx.o(RESET) refers to stm32f4xx_it.o(i.USART2_IRQHandler) for USART2_IRQHandler
    startup_stm32f401xx.o(RESET) refers to stm32f4xx_it.o(i.EXTI15_10_IRQHandler) for EXTI15_10_IRQHandler
    startup_stm32f401xx.o(RESET) refers to stm32f4xx_it.o(i.DMA2_Stream7_IRQHandler) for DMA2_Stream7_IRQHandler
    startup_stm32f401xx.o(RESET) refers to stm32f4xx_it.o(i.USART6_IRQHandler) for USART6_IRQHandler
    startup_stm32f401xx.o(.text) refers to system_stm32f4xx.o(i.SystemInit) for SystemInit
    startup_stm32f401xx.o(.text) refers to entry.o(.ARM.Collect$$$$00000000) for __main
    encryptid.o(i.Check_Lock_Code) refers to getimu.o(i.Change_SensorData) for Change_SensorData
    encryptid.o(i.Check_Lock_Code) refers to encryptid.o(.bss) for CPU_Get_ID
    encryptid.o(i.Check_Lock_Code) refers to main.o(.bss) for Change_Data
    dataproc.o(i.DataProcerInit) refers to memseta.o(.text) for __aeabi_memclr4
    dataproc.o(i.DataProcerInit) refers to main.o(.data) for IMUDataReady
    dataproc.o(i.DataProcerInit) refers to main.o(.bss) for IMUDataBuffer
    dataproc.o(i.GetGNSSData) refers to main.o(.data) for GNSSDataReady
    dataproc.o(i.GetGNSSData) refers to main.o(.bss) for GNSSDataBuffer
    dataproc.o(i.GetIMUData) refers to main.o(.data) for IMUDataReady
    dataproc.o(i.GetIMUData) refers to main.o(.bss) for IMUDataBuffer
    dataproc.o(i.SetGNSSData) refers to memcpya.o(.text) for __aeabi_memcpy4
    dataproc.o(i.SetGNSSData) refers to main.o(.bss) for GNSSDataBuffer
    dataproc.o(i.SetGNSSData) refers to main.o(.data) for GNSSDataReady
    ginavmain.o(i.GINavInit) refers to basicfunc.o(i.Euler2Quat) for Euler2Quat
    ginavmain.o(i.GINavInit) refers to basicfunc.o(i.Quat2CM) for Quat2CM
    ginavmain.o(i.GINavInit) refers to sin.o(i.__hardfp_sin) for __hardfp_sin
    ginavmain.o(i.GINavInit) refers to cos.o(i.__hardfp_cos) for __hardfp_cos
    ginavmain.o(i.GINavInit) refers to dmul.o(.text) for __aeabi_dmul
    ginavmain.o(i.GINavInit) refers to dadd.o(.text) for __aeabi_dsub
    ginavmain.o(i.GINavInit) refers to gifilter.o(i.GIKFInit) for GIKFInit
    ginavmain.o(i.GINavInit) refers to memseta.o(.text) for __aeabi_memclr4
    ginavmain.o(i.GINavInit) refers to main.o(.data) for YZ_Acce_Deta
    ginavmain.o(i.GINavInit) refers to globalvars.o(.bss) for g_GINavInfo
    ginavmain.o(i.GINavInit) refers to dataproc.o(i.DataProcerInit) for DataProcerInit
    ginavmain.o(i.GINavProc) refers to dataproc.o(i.GetIMUData) for GetIMUData
    ginavmain.o(i.GINavProc) refers to dataproc.o(i.GetGNSSData) for GetGNSSData
    ginavmain.o(i.GINavProc) refers to dmul.o(.text) for __aeabi_dmul
    ginavmain.o(i.GINavProc) refers to dadd.o(.text) for __aeabi_dadd
    ginavmain.o(i.GINavProc) refers to sqrt.o(i.__hardfp_sqrt) for __hardfp_sqrt
    ginavmain.o(i.GINavProc) refers to d2f.o(.text) for __aeabi_d2f
    ginavmain.o(i.GINavProc) refers to memcpya.o(.text) for __aeabi_memcpy4
    ginavmain.o(i.GINavProc) refers to insnav.o(i.DynamicModeIdentify) for DynamicModeIdentify
    ginavmain.o(i.GINavProc) refers to insnav.o(i.HandleCompensate) for HandleCompensate
    ginavmain.o(i.GINavProc) refers to f2d.o(.text) for __aeabi_f2d
    ginavmain.o(i.GINavProc) refers to sin.o(i.__hardfp_sin) for __hardfp_sin
    ginavmain.o(i.GINavProc) refers to cos.o(i.__hardfp_cos) for __hardfp_cos
    ginavmain.o(i.GINavProc) refers to globalvars.o(.bss) for g_GINavInfo
    ginavmain.o(i.GINavProc) refers to ginavmain.o(.data) for GNSS_Run_Flag
    ginavmain.o(i.GINavProc) refers to main.o(.data) for SGPS_DGet_Flag
    ginavmain.o(i.GINavProc) refers to insnav.o(i.IMUCompensate) for IMUCompensate
    ginavmain.o(i.GINavProc) refers to insnav.o(i.InitInstallMat) for InitInstallMat
    ginavmain.o(i.GINavProc) refers to insalign.o(i.InitGyroBias) for InitGyroBias
    ginavmain.o(i.GINavProc) refers to insalign.o(i.INSAlign) for INSAlign
    ginavmain.o(i.GINavProc) refers to gifilter.o(i.GIKFInitPMatrix) for GIKFInitPMatrix
    ginavmain.o(i.GINavProc) refers to insalign.o(i.ConfirmHeading) for ConfirmHeading
    ginavmain.o(i.GINavProc) refers to insnav.o(i.INSUpdate) for INSUpdate
    ginavmain.o(i.GINavProc) refers to gifilter.o(i.GIKFCalcPHIMatrix) for GIKFCalcPHIMatrix
    ginavmain.o(i.GINavProc) refers to gifilter.o(i.GIKFPredictPMatrix) for GIKFPredictPMatrix
    ginavmain.o(i.GINavProc) refers to gifilter.o(i.GIKFUpdateByGNSS) for GIKFUpdateByGNSS
    ginavmain.o(i.GINavProc) refers to ginavmain.o(.bss) for PosBack
    ginavmain.o(i.GINavProc) refers to dfltui.o(.text) for __aeabi_ui2d
    ginavmain.o(i.GINavProc) refers to ddiv.o(.text) for __aeabi_ddiv
    ginavmain.o(i.GINavProc) refers to memseta.o(.text) for __aeabi_memclr4
    ginavmain.o(i.GINavProc) refers to main.o(.bss) for IMUDataBuffer
    basicfunc.o(i.AddMtxMt) refers to dmul.o(.text) for __aeabi_dmul
    basicfunc.o(i.AddMtxMt) refers to dadd.o(.text) for __aeabi_dadd
    basicfunc.o(i.AddMxM) refers to dmul.o(.text) for __aeabi_dmul
    basicfunc.o(i.AddMxM) refers to dadd.o(.text) for __aeabi_dadd
    basicfunc.o(i.AddMxMt) refers to dmul.o(.text) for __aeabi_dmul
    basicfunc.o(i.AddMxMt) refers to dadd.o(.text) for __aeabi_dadd
    basicfunc.o(i.AddMxMtxMt) refers to malloc.o(i.malloc) for malloc
    basicfunc.o(i.AddMxMtxMt) refers to dmul.o(.text) for __aeabi_dmul
    basicfunc.o(i.AddMxMtxMt) refers to dadd.o(.text) for __aeabi_dadd
    basicfunc.o(i.AddMxMtxMt) refers to malloc.o(i.free) for free
    basicfunc.o(i.AddMxMxMt) refers to malloc.o(i.malloc) for malloc
    basicfunc.o(i.AddMxMxMt) refers to dmul.o(.text) for __aeabi_dmul
    basicfunc.o(i.AddMxMxMt) refers to dadd.o(.text) for __aeabi_dadd
    basicfunc.o(i.AddMxMxMt) refers to malloc.o(i.free) for free
    basicfunc.o(i.Addequal) refers to dadd.o(.text) for __aeabi_dadd
    basicfunc.o(i.CM2Euler) refers to dmul.o(.text) for __aeabi_dmul
    basicfunc.o(i.CM2Euler) refers to dadd.o(.text) for __aeabi_dadd
    basicfunc.o(i.CM2Euler) refers to sqrt.o(i.__hardfp_sqrt) for __hardfp_sqrt
    basicfunc.o(i.CM2Euler) refers to cdrcmple.o(.text) for __aeabi_cdrcmple
    basicfunc.o(i.CM2Euler) refers to atan2.o(i.__hardfp_atan2) for __hardfp_atan2
    basicfunc.o(i.CM2Euler) refers to ddiv.o(.text) for __aeabi_ddiv
    basicfunc.o(i.CM2Euler) refers to atan.o(i.__hardfp_atan) for __hardfp_atan
    basicfunc.o(i.CM2Euler) refers to cdcmple.o(.text) for __aeabi_cdcmple
    basicfunc.o(i.CM2Quat) refers to dadd.o(.text) for __aeabi_dadd
    basicfunc.o(i.CM2Quat) refers to sqrt.o(i.__hardfp_sqrt) for __hardfp_sqrt
    basicfunc.o(i.CM2Quat) refers to ddiv.o(.text) for __aeabi_ddiv
    basicfunc.o(i.CM2Quat) refers to cdrcmple.o(.text) for __aeabi_cdrcmple
    basicfunc.o(i.CM2Quat) refers to dmul.o(.text) for __aeabi_dmul
    basicfunc.o(i.CMRotation) refers to dmul.o(.text) for __aeabi_dmul
    basicfunc.o(i.CMRotation) refers to dadd.o(.text) for __aeabi_dadd
    basicfunc.o(i.Euler2Quat) refers to ddiv.o(.text) for __aeabi_ddiv
    basicfunc.o(i.Euler2Quat) refers to cos.o(i.__hardfp_cos) for __hardfp_cos
    basicfunc.o(i.Euler2Quat) refers to sin.o(i.__hardfp_sin) for __hardfp_sin
    basicfunc.o(i.Euler2Quat) refers to dmul.o(.text) for __aeabi_dmul
    basicfunc.o(i.Euler2Quat) refers to dadd.o(.text) for __aeabi_dadd
    basicfunc.o(i.GetGpsTime) refers to basicfunc.o(.data) for DaysAcc
    basicfunc.o(i.GetLocalGravity) refers to dmul.o(.text) for __aeabi_dmul
    basicfunc.o(i.GetLocalGravity) refers to dadd.o(.text) for __aeabi_dadd
    basicfunc.o(i.GetNavFrameQuat) refers to ddiv.o(.text) for __aeabi_ddiv
    basicfunc.o(i.GetNavFrameQuat) refers to cos.o(i.__hardfp_cos) for __hardfp_cos
    basicfunc.o(i.GetNavFrameQuat) refers to sin.o(i.__hardfp_sin) for __hardfp_sin
    basicfunc.o(i.GetNavFrameQuat) refers to dadd.o(.text) for __aeabi_drsub
    basicfunc.o(i.GetNavFrameQuat) refers to dmul.o(.text) for __aeabi_dmul
    basicfunc.o(i.GetNextSvid) refers to basicfunc.o(.data) for i
    basicfunc.o(i.NormQuat) refers to dmul.o(.text) for __aeabi_dmul
    basicfunc.o(i.NormQuat) refers to dadd.o(.text) for __aeabi_dadd
    basicfunc.o(i.NormQuat) refers to ddiv.o(.text) for __aeabi_ddiv
    basicfunc.o(i.Quat2CM) refers to dmul.o(.text) for __aeabi_dmul
    basicfunc.o(i.Quat2CM) refers to dadd.o(.text) for __aeabi_dadd
    basicfunc.o(i.QuatMulti) refers to dmul.o(.text) for __aeabi_dmul
    basicfunc.o(i.QuatMulti) refers to dadd.o(.text) for __aeabi_dsub
    basicfunc.o(i.QuatMulti) refers to cdcmple.o(.text) for __aeabi_cdcmple
    basicfunc.o(i.RotVec2Quat) refers to dmul.o(.text) for __aeabi_dmul
    basicfunc.o(i.RotVec2Quat) refers to dadd.o(.text) for __aeabi_dadd
    basicfunc.o(i.RotVec2Quat) refers to cdcmple.o(.text) for __aeabi_cdcmple
    basicfunc.o(i.RotVec2Quat) refers to ddiv.o(.text) for __aeabi_ddiv
    basicfunc.o(i.RotVec2Quat) refers to sqrt.o(i.__hardfp_sqrt) for __hardfp_sqrt
    basicfunc.o(i.RotVec2Quat) refers to sin.o(i.__hardfp_sin) for __hardfp_sin
    basicfunc.o(i.RotVec2Quat) refers to cos.o(i.__hardfp_cos) for __hardfp_cos
    basicfunc.o(i.TriangleMatInv) refers to malloc.o(i.malloc) for malloc
    basicfunc.o(i.TriangleMatInv) refers to fabs.o(i.__hardfp_fabs) for __hardfp_fabs
    basicfunc.o(i.TriangleMatInv) refers to dadd.o(.text) for __aeabi_dadd
    basicfunc.o(i.TriangleMatInv) refers to cdcmple.o(.text) for __aeabi_cdcmpeq
    basicfunc.o(i.TriangleMatInv) refers to malloc.o(i.free) for free
    basicfunc.o(i.TriangleMatInv) refers to ddiv.o(.text) for __aeabi_ddiv
    basicfunc.o(i.TriangleMatInv) refers to dmul.o(.text) for __aeabi_dmul
    basicfunc.o(i.TriangleMatInv) refers to basicfunc.o(.constdata) for line_start
    gifilter.o(i.ChangeGstDeta) refers to f2d.o(.text) for __aeabi_f2d
    gifilter.o(i.ChangeGstDeta) refers to cdcmple.o(.text) for __aeabi_cdcmple
    gifilter.o(i.ChangeGstDeta) refers to globalvars.o(.bss) for g_GINavInfo
    gifilter.o(i.ChangeGstDeta) refers to gifilter.o(.data) for CarFlag
    gifilter.o(i.GIKFBatchSolution) refers to memseta.o(.text) for __aeabi_memclr4
    gifilter.o(i.GIKFBatchSolution) refers to dmul.o(.text) for __aeabi_dmul
    gifilter.o(i.GIKFBatchSolution) refers to dadd.o(.text) for __aeabi_dadd
    gifilter.o(i.GIKFBatchSolution) refers to basicfunc.o(i.TriangleMatInv) for TriangleMatInv
    gifilter.o(i.GIKFBatchSolution) refers to gifilter.o(.constdata) for line_start
    gifilter.o(i.GIKFBatchSolution) refers to gifilter.o(.bss) for GIKFdata
    gifilter.o(i.GIKFCalcPHIMatrix) refers to dfltui.o(.text) for __aeabi_ui2d
    gifilter.o(i.GIKFCalcPHIMatrix) refers to ddiv.o(.text) for __aeabi_ddiv
    gifilter.o(i.GIKFCalcPHIMatrix) refers to dmul.o(.text) for __aeabi_dmul
    gifilter.o(i.GIKFCalcPHIMatrix) refers to sqrt.o(i.__hardfp_sqrt) for __hardfp_sqrt
    gifilter.o(i.GIKFCalcPHIMatrix) refers to dadd.o(.text) for __aeabi_dadd
    gifilter.o(i.GIKFCalcPHIMatrix) refers to gifilter.o(.bss) for GIKFdata
    gifilter.o(i.GIKFCalcPHIMatrix) refers to globalvars.o(.bss) for g_GINavInfo
    gifilter.o(i.GIKFCheckGIResult) refers to dmul.o(.text) for __aeabi_dmul
    gifilter.o(i.GIKFCheckGIResult) refers to dadd.o(.text) for __aeabi_dadd
    gifilter.o(i.GIKFCheckGIResult) refers to sqrt.o(i.__hardfp_sqrt) for __hardfp_sqrt
    gifilter.o(i.GIKFCheckGIResult) refers to d2f.o(.text) for __aeabi_d2f
    gifilter.o(i.GIKFCheckGIResult) refers to cdrcmple.o(.text) for __aeabi_cdrcmple
    gifilter.o(i.GIKFCheckGIResult) refers to cdcmple.o(.text) for __aeabi_cdcmple
    gifilter.o(i.GIKFCheckGIResult) refers to globalvars.o(.bss) for g_GINavInfo
    gifilter.o(i.GIKFCheckGIResult) refers to main.o(.data) for User_Kind
    gifilter.o(i.GIKFCheckPMatrix) refers to cdcmple.o(.text) for __aeabi_cdcmple
    gifilter.o(i.GIKFCheckPMatrix) refers to dmul.o(.text) for __aeabi_dmul
    gifilter.o(i.GIKFCheckPMatrix) refers to dadd.o(.text) for __aeabi_dadd
    gifilter.o(i.GIKFCheckPMatrix) refers to gifilter.o(.constdata) for line_start
    gifilter.o(i.GIKFCheckPMatrix) refers to gifilter.o(.bss) for GIKFdata
    gifilter.o(i.GIKFINSErrorFix) refers to dmul.o(.text) for __aeabi_dmul
    gifilter.o(i.GIKFINSErrorFix) refers to dadd.o(.text) for __aeabi_dadd
    gifilter.o(i.GIKFINSErrorFix) refers to sqrt.o(i.__hardfp_sqrt) for __hardfp_sqrt
    gifilter.o(i.GIKFINSErrorFix) refers to cdcmple.o(.text) for __aeabi_cdcmple
    gifilter.o(i.GIKFINSErrorFix) refers to ddiv.o(.text) for __aeabi_ddiv
    gifilter.o(i.GIKFINSErrorFix) refers to basicfunc.o(i.RotVec2Quat) for RotVec2Quat
    gifilter.o(i.GIKFINSErrorFix) refers to memcpya.o(.text) for __aeabi_memcpy4
    gifilter.o(i.GIKFINSErrorFix) refers to basicfunc.o(i.QuatMulti) for QuatMulti
    gifilter.o(i.GIKFINSErrorFix) refers to basicfunc.o(i.NormQuat) for NormQuat
    gifilter.o(i.GIKFINSErrorFix) refers to basicfunc.o(i.Quat2CM) for Quat2CM
    gifilter.o(i.GIKFINSErrorFix) refers to gifilter.o(.bss) for GIKFdata
    gifilter.o(i.GIKFINSErrorFix) refers to globalvars.o(.bss) for g_GINavInfo
    gifilter.o(i.GIKFINSErrorFix) refers to basicfunc.o(i.CM2Euler) for CM2Euler
    gifilter.o(i.GIKFInit) refers to memseta.o(.text) for __aeabi_memclr4
    gifilter.o(i.GIKFInit) refers to gifilter.o(i.GIKFModularizePMatrix) for GIKFModularizePMatrix
    gifilter.o(i.GIKFInit) refers to gifilter.o(.bss) for GIKFdata
    gifilter.o(i.GIKFInitPMatrix) refers to gifilter.o(.bss) for GIKFdata
    gifilter.o(i.GIKFModularizePMatrix) refers to gifilter.o(.constdata) for line_start
    gifilter.o(i.GIKFPredictPMatrix) refers to dfltui.o(.text) for __aeabi_ui2d
    gifilter.o(i.GIKFPredictPMatrix) refers to ddiv.o(.text) for __aeabi_ddiv
    gifilter.o(i.GIKFPredictPMatrix) refers to memcpya.o(.text) for __aeabi_memcpy4
    gifilter.o(i.GIKFPredictPMatrix) refers to memseta.o(.text) for __aeabi_memclr4
    gifilter.o(i.GIKFPredictPMatrix) refers to gifilter.o(i.GIKFModularizePMatrix) for GIKFModularizePMatrix
    gifilter.o(i.GIKFPredictPMatrix) refers to basicfunc.o(i.AddMxMtxMt) for AddMxMtxMt
    gifilter.o(i.GIKFPredictPMatrix) refers to basicfunc.o(i.AddMxMxMt) for AddMxMxMt
    gifilter.o(i.GIKFPredictPMatrix) refers to gifilter.o(.bss) for GIKFdata
    gifilter.o(i.GIKFPredictPMatrix) refers to basicfunc.o(i.AddMxMt) for AddMxMt
    gifilter.o(i.GIKFPredictPMatrix) refers to basicfunc.o(i.AddMtxMt) for AddMtxMt
    gifilter.o(i.GIKFPredictPMatrix) refers to basicfunc.o(i.Addequal) for Addequal
    gifilter.o(i.GIKFPredictPMatrix) refers to gifilter.o(i.GetQMatrix) for GetQMatrix
    gifilter.o(i.GIKFPredictPMatrix) refers to dmul.o(.text) for __aeabi_dmul
    gifilter.o(i.GIKFPredictPMatrix) refers to dadd.o(.text) for __aeabi_dadd
    gifilter.o(i.GIKFPredictPMatrix) refers to gifilter.o(.constdata) for line_start
    gifilter.o(i.GIKFUpdateByGNSS) refers to memseta.o(.text) for __aeabi_memclr4
    gifilter.o(i.GIKFUpdateByGNSS) refers to gifilter.o(i.ChangeGstDeta) for ChangeGstDeta
    gifilter.o(i.GIKFUpdateByGNSS) refers to gnss.o(i.GnssEvaluation) for GnssEvaluation
    gifilter.o(i.GIKFUpdateByGNSS) refers to gifilter.o(i.SigmaJudge) for SigmaJudge
    gifilter.o(i.GIKFUpdateByGNSS) refers to dadd.o(.text) for __aeabi_dadd
    gifilter.o(i.GIKFUpdateByGNSS) refers to dmul.o(.text) for __aeabi_dmul
    gifilter.o(i.GIKFUpdateByGNSS) refers to gifilter.o(i.GIKFBatchSolution) for GIKFBatchSolution
    gifilter.o(i.GIKFUpdateByGNSS) refers to gifilter.o(i.GIKFCheckPMatrix) for GIKFCheckPMatrix
    gifilter.o(i.GIKFUpdateByGNSS) refers to gifilter.o(i.GIKFINSErrorFix) for GIKFINSErrorFix
    gifilter.o(i.GIKFUpdateByGNSS) refers to gifilter.o(i.GIKFCheckGIResult) for GIKFCheckGIResult
    gifilter.o(i.GIKFUpdateByGNSS) refers to globalvars.o(.bss) for g_GINavInfo
    gifilter.o(i.GIKFUpdateByGNSS) refers to cdcmple.o(.text) for __aeabi_cdcmple
    gifilter.o(i.GIKFUpdateByNHC) refers to memseta.o(.text) for __aeabi_memclr4
    gifilter.o(i.GIKFUpdateByNHC) refers to dmul.o(.text) for __aeabi_dmul
    gifilter.o(i.GIKFUpdateByNHC) refers to dadd.o(.text) for __aeabi_dadd
    gifilter.o(i.GIKFUpdateByNHC) refers to sqrt.o(i.__hardfp_sqrt) for __hardfp_sqrt
    gifilter.o(i.GIKFUpdateByNHC) refers to d2f.o(.text) for __aeabi_d2f
    gifilter.o(i.GIKFUpdateByNHC) refers to dfltui.o(.text) for __aeabi_ui2d
    gifilter.o(i.GIKFUpdateByNHC) refers to cdrcmple.o(.text) for __aeabi_cdrcmple
    gifilter.o(i.GIKFUpdateByNHC) refers to globalvars.o(.bss) for g_GINavInfo
    gifilter.o(i.GIKFUpdateByNHC) refers to gifilter.o(i.GIKFBatchSolution) for GIKFBatchSolution
    gifilter.o(i.GIKFUpdateByNHC) refers to gifilter.o(i.GIKFCheckPMatrix) for GIKFCheckPMatrix
    gifilter.o(i.GIKFUpdateByNHC) refers to gifilter.o(i.GIKFINSErrorFix) for GIKFINSErrorFix
    gifilter.o(i.GIKFUpdateByNHC) refers to gifilter.o(i.GIKFCheckGIResult) for GIKFCheckGIResult
    gifilter.o(i.GIKFUpdateByRMC) refers to dmul.o(.text) for __aeabi_dmul
    gifilter.o(i.GIKFUpdateByRMC) refers to dadd.o(.text) for __aeabi_dadd
    gifilter.o(i.GIKFUpdateByRMC) refers to sqrt.o(i.__hardfp_sqrt) for __hardfp_sqrt
    gifilter.o(i.GIKFUpdateByRMC) refers to cdrcmple.o(.text) for __aeabi_cdrcmple
    gifilter.o(i.GIKFUpdateByRMC) refers to atan2.o(i.__hardfp_atan2) for __hardfp_atan2
    gifilter.o(i.GIKFUpdateByRMC) refers to cdcmple.o(.text) for __aeabi_cdcmple
    gifilter.o(i.GIKFUpdateByRMC) refers to f2d.o(.text) for __aeabi_f2d
    gifilter.o(i.GIKFUpdateByRMC) refers to globalvars.o(.bss) for g_GINavInfo
    gifilter.o(i.GIKFUpdateByRMC) refers to gifilter.o(.data) for BigErrorNum
    gifilter.o(i.GIKFUpdateByRMC) refers to basicfunc.o(i.Euler2Quat) for Euler2Quat
    gifilter.o(i.GIKFUpdateByRMC) refers to basicfunc.o(i.Quat2CM) for Quat2CM
    gifilter.o(i.GIKFUpdateByStatic) refers to memseta.o(.text) for __aeabi_memclr4
    gifilter.o(i.GIKFUpdateByStatic) refers to dfltui.o(.text) for __aeabi_ui2d
    gifilter.o(i.GIKFUpdateByStatic) refers to ddiv.o(.text) for __aeabi_ddiv
    gifilter.o(i.GIKFUpdateByStatic) refers to cdrcmple.o(.text) for __aeabi_cdrcmple
    gifilter.o(i.GIKFUpdateByStatic) refers to dfixui.o(.text) for __aeabi_d2uiz
    gifilter.o(i.GIKFUpdateByStatic) refers to f2d.o(.text) for __aeabi_f2d
    gifilter.o(i.GIKFUpdateByStatic) refers to dadd.o(.text) for __aeabi_dadd
    gifilter.o(i.GIKFUpdateByStatic) refers to dmul.o(.text) for __aeabi_dmul
    gifilter.o(i.GIKFUpdateByStatic) refers to gifilter.o(i.GIKFBatchSolution) for GIKFBatchSolution
    gifilter.o(i.GIKFUpdateByStatic) refers to gifilter.o(i.GIKFCheckPMatrix) for GIKFCheckPMatrix
    gifilter.o(i.GIKFUpdateByStatic) refers to gifilter.o(i.GIKFINSErrorFix) for GIKFINSErrorFix
    gifilter.o(i.GIKFUpdateByStatic) refers to gifilter.o(i.GIKFCheckGIResult) for GIKFCheckGIResult
    gifilter.o(i.GIKFUpdateByStatic) refers to globalvars.o(.bss) for g_GINavInfo
    gifilter.o(i.GetQMatrix) refers to gifilter.o(.bss) for GIKFdata
    gifilter.o(i.SigmaJudge) refers to dmul.o(.text) for __aeabi_dmul
    gifilter.o(i.SigmaJudge) refers to cdcmple.o(.text) for __aeabi_cdcmple
    gnss.o(i.GnssEvaluation) refers to dmul.o(.text) for __aeabi_dmul
    gnss.o(i.GnssEvaluation) refers to dadd.o(.text) for __aeabi_dadd
    gnss.o(i.GnssEvaluation) refers to sqrt.o(i.__hardfp_sqrt) for __hardfp_sqrt
    gnss.o(i.GnssEvaluation) refers to d2f.o(.text) for __aeabi_d2f
    gnss.o(i.GnssEvaluation) refers to f2d.o(.text) for __aeabi_f2d
    gnss.o(i.GnssEvaluation) refers to cdrcmple.o(.text) for __aeabi_cdrcmple
    gnss.o(i.GnssEvaluation) refers to globalvars.o(.bss) for g_GINavInfo
    gnss.o(i.GnssEvaluation) refers to gnss.o(.data) for Head_BNum
    gnss.o(i.GnssEvaluation) refers to gnss.o(.bss) for PosBack
    gnss.o(i.GnssEvaluation) refers to atan2.o(i.__hardfp_atan2) for __hardfp_atan2
    gnss.o(i.GnssEvaluation) refers to cdcmple.o(.text) for __aeabi_cdcmple
    gnss.o(i.GnssEvaluation) refers to cos.o(i.__hardfp_cos) for __hardfp_cos
    gnss.o(i.GnssEvaluation) refers to ddiv.o(.text) for __aeabi_ddiv
    insalign.o(i.ConfirmHeading) refers to dmul.o(.text) for __aeabi_dmul
    insalign.o(i.ConfirmHeading) refers to dadd.o(.text) for __aeabi_dadd
    insalign.o(i.ConfirmHeading) refers to sqrt.o(i.__hardfp_sqrt) for __hardfp_sqrt
    insalign.o(i.ConfirmHeading) refers to cdcmple.o(.text) for __aeabi_cdcmple
    insalign.o(i.ConfirmHeading) refers to atan2.o(i.__hardfp_atan2) for __hardfp_atan2
    insalign.o(i.ConfirmHeading) refers to cdrcmple.o(.text) for __aeabi_cdrcmple
    insalign.o(i.ConfirmHeading) refers to basicfunc.o(i.Euler2Quat) for Euler2Quat
    insalign.o(i.ConfirmHeading) refers to basicfunc.o(i.Quat2CM) for Quat2CM
    insalign.o(i.ConfirmHeading) refers to globalvars.o(.bss) for g_GINavInfo
    insalign.o(i.ConfirmHeading) refers to insalign.o(.data) for HeadNum
    insalign.o(i.INSAlign) refers to memseta.o(.text) for __aeabi_memclr4
    insalign.o(i.INSAlign) refers to dadd.o(.text) for __aeabi_dadd
    insalign.o(i.INSAlign) refers to dflti.o(.text) for __aeabi_i2d
    insalign.o(i.INSAlign) refers to ddiv.o(.text) for __aeabi_ddiv
    insalign.o(i.INSAlign) refers to dmul.o(.text) for __aeabi_dmul
    insalign.o(i.INSAlign) refers to sqrt.o(i.__hardfp_sqrt) for __hardfp_sqrt
    insalign.o(i.INSAlign) refers to asin.o(i.__hardfp_asin) for __hardfp_asin
    insalign.o(i.INSAlign) refers to cos.o(i.__hardfp_cos) for __hardfp_cos
    insalign.o(i.INSAlign) refers to basicfunc.o(i.Euler2Quat) for Euler2Quat
    insalign.o(i.INSAlign) refers to basicfunc.o(i.Quat2CM) for Quat2CM
    insalign.o(i.INSAlign) refers to globalvars.o(.bss) for g_GINavInfo
    insalign.o(i.INSAlign) refers to insalign.o(.bss) for AccSmoother
    insalign.o(i.INSAlign) refers to insalign.o(.data) for Att_Flag
    insalign.o(i.INSAlign) refers to main.o(.data) for RSE_DGet_Flag
    insalign.o(i.INSAlign) refers to basicfunc.o(i.GetNavFrameQuat) for GetNavFrameQuat
    insalign.o(i.INSAlign) refers to basicfunc.o(i.GetLocalGravity) for GetLocalGravity
    insalign.o(i.INSAlign) refers to memcpya.o(.text) for __aeabi_memcpy4
    insalign.o(i.INSAlign) refers to cdrcmple.o(.text) for __aeabi_cdrcmple
    insalign.o(i.INSAlign) refers to atan2.o(i.__hardfp_atan2) for __hardfp_atan2
    insalign.o(i.INSAlign) refers to cdcmple.o(.text) for __aeabi_cdcmple
    insalign.o(i.InitGyroBias) refers to memseta.o(.text) for __aeabi_memclr4
    insalign.o(i.InitGyroBias) refers to dfltui.o(.text) for __aeabi_ui2d
    insalign.o(i.InitGyroBias) refers to ddiv.o(.text) for __aeabi_ddiv
    insalign.o(i.InitGyroBias) refers to dadd.o(.text) for __aeabi_dadd
    insalign.o(i.InitGyroBias) refers to dmul.o(.text) for __aeabi_dmul
    insalign.o(i.InitGyroBias) refers to memcpya.o(.text) for __aeabi_memcpy4
    insalign.o(i.InitGyroBias) refers to basicfunc.o(i.CMRotation) for CMRotation
    insalign.o(i.InitGyroBias) refers to globalvars.o(.bss) for g_GINavInfo
    insalign.o(i.InitGyroBias) refers to insalign.o(.data) for SmoothCount
    insnav.o(i.ChangeCoord) refers to memseta.o(.text) for __aeabi_memclr4
    insnav.o(i.ChangeCoord) refers to dadd.o(.text) for __aeabi_dadd
    insnav.o(i.ChangeCoord) refers to dflti.o(.text) for __aeabi_i2d
    insnav.o(i.ChangeCoord) refers to ddiv.o(.text) for __aeabi_ddiv
    insnav.o(i.ChangeCoord) refers to dmul.o(.text) for __aeabi_dmul
    insnav.o(i.ChangeCoord) refers to sqrt.o(i.__hardfp_sqrt) for __hardfp_sqrt
    insnav.o(i.ChangeCoord) refers to cdrcmple.o(.text) for __aeabi_cdrcmple
    insnav.o(i.ChangeCoord) refers to cdcmple.o(.text) for __aeabi_cdcmple
    insnav.o(i.ChangeCoord) refers to globalvars.o(.bss) for g_GINavInfo
    insnav.o(i.ChangeCoord) refers to insnav.o(.data) for SmoothCount
    insnav.o(i.ChangeCoord) refers to insnav.o(.bss) for AccSmoother
    insnav.o(i.DynamicModeIdentify) refers to dflti.o(.text) for __aeabi_i2d
    insnav.o(i.DynamicModeIdentify) refers to ddiv.o(.text) for __aeabi_ddiv
    insnav.o(i.DynamicModeIdentify) refers to dadd.o(.text) for __aeabi_drsub
    insnav.o(i.DynamicModeIdentify) refers to cdrcmple.o(.text) for __aeabi_cdrcmple
    insnav.o(i.DynamicModeIdentify) refers to insnav.o(.data) for SmoothCount
    insnav.o(i.DynamicModeIdentify) refers to insnav.o(.bss) for GyroSmoother
    insnav.o(i.DynamicModeIdentify) refers to insnav.o(.constdata) for StaticThd
    insnav.o(i.DynamicModeIdentify) refers to globalvars.o(.bss) for g_GINavInfo
    insnav.o(i.HandleCompensate) refers to dfltui.o(.text) for __aeabi_ui2d
    insnav.o(i.HandleCompensate) refers to ddiv.o(.text) for __aeabi_ddiv
    insnav.o(i.HandleCompensate) refers to basicfunc.o(i.CMRotation) for CMRotation
    insnav.o(i.HandleCompensate) refers to d2f.o(.text) for __aeabi_d2f
    insnav.o(i.HandleCompensate) refers to globalvars.o(.bss) for g_GINavInfo
    insnav.o(i.IMUCompensate) refers to dfltui.o(.text) for __aeabi_ui2d
    insnav.o(i.IMUCompensate) refers to ddiv.o(.text) for __aeabi_ddiv
    insnav.o(i.IMUCompensate) refers to basicfunc.o(i.CMRotation) for CMRotation
    insnav.o(i.IMUCompensate) refers to dmul.o(.text) for __aeabi_dmul
    insnav.o(i.IMUCompensate) refers to dadd.o(.text) for __aeabi_drsub
    insnav.o(i.IMUCompensate) refers to f2d.o(.text) for __aeabi_f2d
    insnav.o(i.IMUCompensate) refers to globalvars.o(.bss) for g_GINavInfo
    insnav.o(i.INSUpdate) refers to dfltui.o(.text) for __aeabi_ui2d
    insnav.o(i.INSUpdate) refers to ddiv.o(.text) for __aeabi_ddiv
    insnav.o(i.INSUpdate) refers to memseta.o(.text) for __aeabi_memclr4
    insnav.o(i.INSUpdate) refers to dmul.o(.text) for __aeabi_dmul
    insnav.o(i.INSUpdate) refers to dadd.o(.text) for __aeabi_dadd
    insnav.o(i.INSUpdate) refers to globalvars.o(.bss) for g_GINavInfo
    insnav.o(i.INSUpdate) refers to basicfunc.o(i.CMRotation) for CMRotation
    insnav.o(i.INSUpdate) refers to basicfunc.o(i.RotVec2Quat) for RotVec2Quat
    insnav.o(i.INSUpdate) refers to basicfunc.o(i.QuatMulti) for QuatMulti
    insnav.o(i.INSUpdate) refers to basicfunc.o(i.NormQuat) for NormQuat
    insnav.o(i.INSUpdate) refers to basicfunc.o(i.Quat2CM) for Quat2CM
    insnav.o(i.INSUpdate) refers to asin.o(i.__hardfp_asin) for __hardfp_asin
    insnav.o(i.INSUpdate) refers to atan2.o(i.__hardfp_atan2) for __hardfp_atan2
    insnav.o(i.INSUpdate) refers to basicfunc.o(i.CM2Euler) for CM2Euler
    insnav.o(i.INSUpdate) refers to basicfunc.o(i.GetLocalGravity) for GetLocalGravity
    insnav.o(i.INSUpdate) refers to sqrt.o(i.__hardfp_sqrt) for __hardfp_sqrt
    insnav.o(i.InitInstallMat) refers to memseta.o(.text) for __aeabi_memclr4
    insnav.o(i.InitInstallMat) refers to dadd.o(.text) for __aeabi_dadd
    insnav.o(i.InitInstallMat) refers to dflti.o(.text) for __aeabi_i2d
    insnav.o(i.InitInstallMat) refers to ddiv.o(.text) for __aeabi_ddiv
    insnav.o(i.InitInstallMat) refers to dmul.o(.text) for __aeabi_dmul
    insnav.o(i.InitInstallMat) refers to sqrt.o(i.__hardfp_sqrt) for __hardfp_sqrt
    insnav.o(i.InitInstallMat) refers to cdrcmple.o(.text) for __aeabi_cdrcmple
    insnav.o(i.InitInstallMat) refers to globalvars.o(.bss) for g_GINavInfo
    insnav.o(i.InitInstallMat) refers to main.o(.data) for RSE_DGet_Flag
    insnav.o(i.InitInstallMat) refers to insnav.o(.data) for SmoothCount
    insnav.o(i.InitInstallMat) refers to insnav.o(.bss) for AccSmoother
    insnav.o(i.InitInstallMat) refers to cdcmple.o(.text) for __aeabi_cdcmple
    insnav.o(i.InitInstallMat) refers to basicfunc.o(i.CMRotation) for CMRotation
    insnav.o(i.InitInstallMat) refers to atan2.o(i.__hardfp_atan2) for __hardfp_atan2
    insnav.o(i.InitInstallMat) refers to dfixi.o(.text) for __aeabi_d2iz
    insnav.o(i.InitInstallMat) refers to sin.o(i.__hardfp_sin) for __hardfp_sin
    insnav.o(i.InitInstallMat) refers to cos.o(i.__hardfp_cos) for __hardfp_cos
    alpu-c-0ff.o(.text) refers to 24cxx.o(i._i2c_read) for _i2c_read
    alpu-c-0ff.o(.text) refers to 24cxx.o(i._i2c_write) for _i2c_write
    alpu-c-0ff.o(.text) refers to 24cxx.o(i._alpu_delay_ms) for _alpu_delay_ms
    alpu-c-0ff.o(.text) refers to alpu-c-0ff.o(.data) for user_serial0
    alpu-c-0ff.o(.text) refers to alpu-c-0ff.o(.bss) for alpuc_rx_data
    alpu-c-0ff.o(.text) refers to 24cxx.o(i._alpu_rand) for _alpu_rand
    asin.o(i.__hardfp_asin) refers (Special) to iusefp.o(.text) for __I$use$fp
    asin.o(i.__hardfp_asin) refers to dunder.o(i.__mathlib_dbl_infnan) for __mathlib_dbl_infnan
    asin.o(i.__hardfp_asin) refers to dmul.o(.text) for __aeabi_dmul
    asin.o(i.__hardfp_asin) refers to dadd.o(.text) for __aeabi_dadd
    asin.o(i.__hardfp_asin) refers to errno.o(i.__set_errno) for __set_errno
    asin.o(i.__hardfp_asin) refers to dunder.o(i.__mathlib_dbl_invalid) for __mathlib_dbl_invalid
    asin.o(i.__hardfp_asin) refers to fpclassify.o(i.__ARM_fpclassify) for __ARM_fpclassify
    asin.o(i.__hardfp_asin) refers to dunder.o(i.__mathlib_dbl_underflow) for __mathlib_dbl_underflow
    asin.o(i.__hardfp_asin) refers to poly.o(i.__kernel_poly) for __kernel_poly
    asin.o(i.__hardfp_asin) refers to ddiv.o(.text) for __aeabi_ddiv
    asin.o(i.__hardfp_asin) refers to fabs.o(i.fabs) for fabs
    asin.o(i.__hardfp_asin) refers to sqrt.o(i.sqrt) for sqrt
    asin.o(i.__hardfp_asin) refers to asin.o(.constdata) for .constdata
    asin.o(i.__softfp_asin) refers (Special) to iusefp.o(.text) for __I$use$fp
    asin.o(i.__softfp_asin) refers to asin.o(i.__hardfp_asin) for __hardfp_asin
    asin.o(i.asin) refers (Special) to iusefp.o(.text) for __I$use$fp
    asin.o(i.asin) refers to asin.o(i.__hardfp_asin) for __hardfp_asin
    asin.o(.constdata) refers (Special) to iusefp.o(.text) for __I$use$fp
    asin_x.o(i.____hardfp_asin$lsc) refers (Special) to iusefp.o(.text) for __I$use$fp
    asin_x.o(i.____hardfp_asin$lsc) refers to dunder.o(i.__mathlib_dbl_infnan) for __mathlib_dbl_infnan
    asin_x.o(i.____hardfp_asin$lsc) refers to dmul.o(.text) for __aeabi_dmul
    asin_x.o(i.____hardfp_asin$lsc) refers to dadd.o(.text) for __aeabi_dadd
    asin_x.o(i.____hardfp_asin$lsc) refers to errno.o(i.__set_errno) for __set_errno
    asin_x.o(i.____hardfp_asin$lsc) refers to poly.o(i.__kernel_poly) for __kernel_poly
    asin_x.o(i.____hardfp_asin$lsc) refers to ddiv.o(.text) for __aeabi_ddiv
    asin_x.o(i.____hardfp_asin$lsc) refers to fabs.o(i.fabs) for fabs
    asin_x.o(i.____hardfp_asin$lsc) refers to sqrt.o(i.sqrt) for sqrt
    asin_x.o(i.____hardfp_asin$lsc) refers to asin_x.o(.constdata) for .constdata
    asin_x.o(i.____softfp_asin$lsc) refers (Special) to iusefp.o(.text) for __I$use$fp
    asin_x.o(i.____softfp_asin$lsc) refers to asin_x.o(i.____hardfp_asin$lsc) for ____hardfp_asin$lsc
    asin_x.o(i.__asin$lsc) refers (Special) to iusefp.o(.text) for __I$use$fp
    asin_x.o(i.__asin$lsc) refers to asin_x.o(i.____hardfp_asin$lsc) for ____hardfp_asin$lsc
    asin_x.o(.constdata) refers (Special) to iusefp.o(.text) for __I$use$fp
    atan.o(i.__hardfp_atan) refers (Special) to iusefp.o(.text) for __I$use$fp
    atan.o(i.__hardfp_atan) refers to dunder.o(i.__mathlib_dbl_infnan) for __mathlib_dbl_infnan
    atan.o(i.__hardfp_atan) refers to fpclassify.o(i.__ARM_fpclassify) for __ARM_fpclassify
    atan.o(i.__hardfp_atan) refers to dunder.o(i.__mathlib_dbl_underflow) for __mathlib_dbl_underflow
    atan.o(i.__hardfp_atan) refers to fabs.o(i.fabs) for fabs
    atan.o(i.__hardfp_atan) refers to dadd.o(.text) for __aeabi_dadd
    atan.o(i.__hardfp_atan) refers to dmul.o(.text) for __aeabi_dmul
    atan.o(i.__hardfp_atan) refers to ddiv.o(.text) for __aeabi_ddiv
    atan.o(i.__hardfp_atan) refers to poly.o(i.__kernel_poly) for __kernel_poly
    atan.o(i.__hardfp_atan) refers to atan.o(.constdata) for .constdata
    atan.o(i.__softfp_atan) refers (Special) to iusefp.o(.text) for __I$use$fp
    atan.o(i.__softfp_atan) refers to atan.o(i.__hardfp_atan) for __hardfp_atan
    atan.o(i.atan) refers (Special) to iusefp.o(.text) for __I$use$fp
    atan.o(i.atan) refers to atan.o(i.__hardfp_atan) for __hardfp_atan
    atan.o(.constdata) refers (Special) to iusefp.o(.text) for __I$use$fp
    atan_x.o(i.____hardfp_atan$lsc) refers (Special) to iusefp.o(.text) for __I$use$fp
    atan_x.o(i.____hardfp_atan$lsc) refers to dunder.o(i.__mathlib_dbl_infnan) for __mathlib_dbl_infnan
    atan_x.o(i.____hardfp_atan$lsc) refers to fabs.o(i.fabs) for fabs
    atan_x.o(i.____hardfp_atan$lsc) refers to dadd.o(.text) for __aeabi_dadd
    atan_x.o(i.____hardfp_atan$lsc) refers to dmul.o(.text) for __aeabi_dmul
    atan_x.o(i.____hardfp_atan$lsc) refers to ddiv.o(.text) for __aeabi_ddiv
    atan_x.o(i.____hardfp_atan$lsc) refers to poly.o(i.__kernel_poly) for __kernel_poly
    atan_x.o(i.____hardfp_atan$lsc) refers to atan_x.o(.constdata) for .constdata
    atan_x.o(i.____softfp_atan$lsc) refers (Special) to iusefp.o(.text) for __I$use$fp
    atan_x.o(i.____softfp_atan$lsc) refers to atan_x.o(i.____hardfp_atan$lsc) for ____hardfp_atan$lsc
    atan_x.o(i.__atan$lsc) refers (Special) to iusefp.o(.text) for __I$use$fp
    atan_x.o(i.__atan$lsc) refers to atan_x.o(i.____hardfp_atan$lsc) for ____hardfp_atan$lsc
    atan_x.o(.constdata) refers (Special) to iusefp.o(.text) for __I$use$fp
    atan2.o(i.__hardfp_atan2) refers (Special) to iusefp.o(.text) for __I$use$fp
    atan2.o(i.__hardfp_atan2) refers to dunder.o(i.__mathlib_dbl_infnan2) for __mathlib_dbl_infnan2
    atan2.o(i.__hardfp_atan2) refers to atan.o(i.atan) for atan
    atan2.o(i.__hardfp_atan2) refers to ddiv.o(.text) for __aeabi_ddiv
    atan2.o(i.__hardfp_atan2) refers to fabs.o(i.fabs) for fabs
    atan2.o(i.__hardfp_atan2) refers to dadd.o(.text) for __aeabi_dsub
    atan2.o(i.__hardfp_atan2) refers to qnan.o(.constdata) for __mathlib_zero
    atan2.o(i.__softfp_atan2) refers (Special) to iusefp.o(.text) for __I$use$fp
    atan2.o(i.__softfp_atan2) refers to atan2.o(i.__hardfp_atan2) for __hardfp_atan2
    atan2.o(i.atan2) refers (Special) to iusefp.o(.text) for __I$use$fp
    atan2.o(i.atan2) refers to atan2.o(i.__hardfp_atan2) for __hardfp_atan2
    atan2_x.o(i.____hardfp_atan2$lsc) refers (Special) to iusefp.o(.text) for __I$use$fp
    atan2_x.o(i.____hardfp_atan2$lsc) refers to dunder.o(i.__mathlib_dbl_infnan2) for __mathlib_dbl_infnan2
    atan2_x.o(i.____hardfp_atan2$lsc) refers to atan.o(i.atan) for atan
    atan2_x.o(i.____hardfp_atan2$lsc) refers to errno.o(i.__set_errno) for __set_errno
    atan2_x.o(i.____hardfp_atan2$lsc) refers to ddiv.o(.text) for __aeabi_ddiv
    atan2_x.o(i.____hardfp_atan2$lsc) refers to fabs.o(i.fabs) for fabs
    atan2_x.o(i.____hardfp_atan2$lsc) refers to dadd.o(.text) for __aeabi_dsub
    atan2_x.o(i.____hardfp_atan2$lsc) refers to qnan.o(.constdata) for __mathlib_zero
    atan2_x.o(i.____softfp_atan2$lsc) refers (Special) to iusefp.o(.text) for __I$use$fp
    atan2_x.o(i.____softfp_atan2$lsc) refers to atan2_x.o(i.____hardfp_atan2$lsc) for ____hardfp_atan2$lsc
    atan2_x.o(i.__atan2$lsc) refers (Special) to iusefp.o(.text) for __I$use$fp
    atan2_x.o(i.__atan2$lsc) refers to atan2_x.o(i.____hardfp_atan2$lsc) for ____hardfp_atan2$lsc
    atof.o(i.__hardfp_atof) refers (Special) to iusefp.o(.text) for __I$use$fp
    atof.o(i.__hardfp_atof) refers to errno.o(i.__read_errno) for __read_errno
    atof.o(i.__hardfp_atof) refers to strtod.o(.text) for __strtod_int
    atof.o(i.__hardfp_atof) refers to errno.o(i.__set_errno) for __set_errno
    atof.o(i.__softfp_atof) refers (Special) to iusefp.o(.text) for __I$use$fp
    atof.o(i.__softfp_atof) refers to errno.o(i.__read_errno) for __read_errno
    atof.o(i.__softfp_atof) refers to strtod.o(.text) for __strtod_int
    atof.o(i.__softfp_atof) refers to errno.o(i.__set_errno) for __set_errno
    atof.o(i.atof) refers (Special) to iusefp.o(.text) for __I$use$fp
    atof.o(i.atof) refers to errno.o(i.__read_errno) for __read_errno
    atof.o(i.atof) refers to strtod.o(.text) for __strtod_int
    atof.o(i.atof) refers to errno.o(i.__set_errno) for __set_errno
    cos.o(i.__hardfp_cos) refers (Special) to iusefp.o(.text) for __I$use$fp
    cos.o(i.__hardfp_cos) refers to errno.o(i.__set_errno) for __set_errno
    cos.o(i.__hardfp_cos) refers to dunder.o(i.__mathlib_dbl_invalid) for __mathlib_dbl_invalid
    cos.o(i.__hardfp_cos) refers to dunder.o(i.__mathlib_dbl_infnan) for __mathlib_dbl_infnan
    cos.o(i.__hardfp_cos) refers to rred.o(i.__ieee754_rem_pio2) for __ieee754_rem_pio2
    cos.o(i.__hardfp_cos) refers to sin_i.o(i.__kernel_sin) for __kernel_sin
    cos.o(i.__hardfp_cos) refers to cos_i.o(i.__kernel_cos) for __kernel_cos
    cos.o(i.__softfp_cos) refers (Special) to iusefp.o(.text) for __I$use$fp
    cos.o(i.__softfp_cos) refers to cos.o(i.__hardfp_cos) for __hardfp_cos
    cos.o(i.cos) refers (Special) to iusefp.o(.text) for __I$use$fp
    cos.o(i.cos) refers to cos.o(i.__hardfp_cos) for __hardfp_cos
    cos_x.o(i.____hardfp_cos$lsc) refers (Special) to iusefp.o(.text) for __I$use$fp
    cos_x.o(i.____hardfp_cos$lsc) refers to errno.o(i.__set_errno) for __set_errno
    cos_x.o(i.____hardfp_cos$lsc) refers to dunder.o(i.__mathlib_dbl_infnan) for __mathlib_dbl_infnan
    cos_x.o(i.____hardfp_cos$lsc) refers to rred.o(i.__ieee754_rem_pio2) for __ieee754_rem_pio2
    cos_x.o(i.____hardfp_cos$lsc) refers to sin_i.o(i.__kernel_sin) for __kernel_sin
    cos_x.o(i.____hardfp_cos$lsc) refers to cos_i.o(i.__kernel_cos) for __kernel_cos
    cos_x.o(i.____softfp_cos$lsc) refers (Special) to iusefp.o(.text) for __I$use$fp
    cos_x.o(i.____softfp_cos$lsc) refers to cos_x.o(i.____hardfp_cos$lsc) for ____hardfp_cos$lsc
    cos_x.o(i.__cos$lsc) refers (Special) to iusefp.o(.text) for __I$use$fp
    cos_x.o(i.__cos$lsc) refers to cos_x.o(i.____hardfp_cos$lsc) for ____hardfp_cos$lsc
    fabs.o(i.__hardfp_fabs) refers (Special) to iusefp.o(.text) for __I$use$fp
    fabs.o(i.__softfp_fabs) refers (Special) to iusefp.o(.text) for __I$use$fp
    fabs.o(i.fabs) refers (Special) to iusefp.o(.text) for __I$use$fp
    sin.o(i.__hardfp_sin) refers (Special) to iusefp.o(.text) for __I$use$fp
    sin.o(i.__hardfp_sin) refers to errno.o(i.__set_errno) for __set_errno
    sin.o(i.__hardfp_sin) refers to dunder.o(i.__mathlib_dbl_invalid) for __mathlib_dbl_invalid
    sin.o(i.__hardfp_sin) refers to dunder.o(i.__mathlib_dbl_infnan) for __mathlib_dbl_infnan
    sin.o(i.__hardfp_sin) refers to rred.o(i.__ieee754_rem_pio2) for __ieee754_rem_pio2
    sin.o(i.__hardfp_sin) refers to cos_i.o(i.__kernel_cos) for __kernel_cos
    sin.o(i.__hardfp_sin) refers to sin_i.o(i.__kernel_sin) for __kernel_sin
    sin.o(i.__softfp_sin) refers (Special) to iusefp.o(.text) for __I$use$fp
    sin.o(i.__softfp_sin) refers to sin.o(i.__hardfp_sin) for __hardfp_sin
    sin.o(i.sin) refers (Special) to iusefp.o(.text) for __I$use$fp
    sin.o(i.sin) refers to sin.o(i.__hardfp_sin) for __hardfp_sin
    sin_x.o(i.____hardfp_sin$lsc) refers (Special) to iusefp.o(.text) for __I$use$fp
    sin_x.o(i.____hardfp_sin$lsc) refers to errno.o(i.__set_errno) for __set_errno
    sin_x.o(i.____hardfp_sin$lsc) refers to dunder.o(i.__mathlib_dbl_infnan) for __mathlib_dbl_infnan
    sin_x.o(i.____hardfp_sin$lsc) refers to rred.o(i.__ieee754_rem_pio2) for __ieee754_rem_pio2
    sin_x.o(i.____hardfp_sin$lsc) refers to cos_i.o(i.__kernel_cos) for __kernel_cos
    sin_x.o(i.____hardfp_sin$lsc) refers to sin_i.o(i.__kernel_sin) for __kernel_sin
    sin_x.o(i.____softfp_sin$lsc) refers (Special) to iusefp.o(.text) for __I$use$fp
    sin_x.o(i.____softfp_sin$lsc) refers to sin_x.o(i.____hardfp_sin$lsc) for ____hardfp_sin$lsc
    sin_x.o(i.__sin$lsc) refers (Special) to iusefp.o(.text) for __I$use$fp
    sin_x.o(i.__sin$lsc) refers to sin_x.o(i.____hardfp_sin$lsc) for ____hardfp_sin$lsc
    sqrt.o(i.__hardfp_sqrt) refers (Special) to iusefp.o(.text) for __I$use$fp
    sqrt.o(i.__hardfp_sqrt) refers to dsqrt.o(.text) for _dsqrt
    sqrt.o(i.__hardfp_sqrt) refers to errno.o(i.__set_errno) for __set_errno
    sqrt.o(i.__softfp_sqrt) refers (Special) to iusefp.o(.text) for __I$use$fp
    sqrt.o(i.__softfp_sqrt) refers to dsqrt.o(.text) for _dsqrt
    sqrt.o(i.__softfp_sqrt) refers to errno.o(i.__set_errno) for __set_errno
    sqrt.o(i.sqrt) refers (Special) to iusefp.o(.text) for __I$use$fp
    sqrt.o(i.sqrt) refers to dsqrt.o(.text) for _dsqrt
    sqrt.o(i.sqrt) refers to errno.o(i.__set_errno) for __set_errno
    sqrt_x.o(i.____hardfp_sqrt$lsc) refers (Special) to iusefp.o(.text) for __I$use$fp
    sqrt_x.o(i.____hardfp_sqrt$lsc) refers to cdcmple.o(.text) for __aeabi_cdcmple
    sqrt_x.o(i.____hardfp_sqrt$lsc) refers to errno.o(i.__set_errno) for __set_errno
    sqrt_x.o(i.____hardfp_sqrt$lsc) refers to dsqrt.o(.text) for _dsqrt
    sqrt_x.o(i.____softfp_sqrt$lsc) refers (Special) to iusefp.o(.text) for __I$use$fp
    sqrt_x.o(i.____softfp_sqrt$lsc) refers to cdcmple.o(.text) for __aeabi_cdcmple
    sqrt_x.o(i.____softfp_sqrt$lsc) refers to errno.o(i.__set_errno) for __set_errno
    sqrt_x.o(i.____softfp_sqrt$lsc) refers to dsqrt.o(.text) for _dsqrt
    sqrt_x.o(i.__sqrt$lsc) refers (Special) to iusefp.o(.text) for __I$use$fp
    sqrt_x.o(i.__sqrt$lsc) refers to cdcmple.o(.text) for __aeabi_cdcmple
    sqrt_x.o(i.__sqrt$lsc) refers to errno.o(i.__set_errno) for __set_errno
    sqrt_x.o(i.__sqrt$lsc) refers to dsqrt.o(.text) for _dsqrt
    entry.o(.ARM.Collect$$$$00000000) refers (Special) to entry10a.o(.ARM.Collect$$$$0000000D) for __rt_final_cpp
    entry.o(.ARM.Collect$$$$00000000) refers (Special) to entry11a.o(.ARM.Collect$$$$0000000F) for __rt_final_exit
    entry.o(.ARM.Collect$$$$00000000) refers (Special) to entry7b.o(.ARM.Collect$$$$00000008) for _main_clock
    entry.o(.ARM.Collect$$$$00000000) refers (Special) to entry8b.o(.ARM.Collect$$$$0000000A) for _main_cpp_init
    entry.o(.ARM.Collect$$$$00000000) refers (Special) to entry9a.o(.ARM.Collect$$$$0000000B) for _main_init
    entry.o(.ARM.Collect$$$$00000000) refers (Special) to entry5.o(.ARM.Collect$$$$00000004) for _main_scatterload
    entry.o(.ARM.Collect$$$$00000000) refers (Special) to entry2.o(.ARM.Collect$$$$00000001) for _main_stk
    uldiv.o(.text) refers to llushr.o(.text) for __aeabi_llsr
    uldiv.o(.text) refers to llshl.o(.text) for __aeabi_llsl
    rand.o(.text) refers to rand.o(.data) for .data
    malloc.o(i.free) refers to mvars.o(.data) for __microlib_freelist
    malloc.o(i.malloc) refers to mvars.o(.data) for __microlib_freelist_initialised
    malloc.o(i.malloc) refers to mvars.o(.data) for __microlib_freelist
    malloc.o(i.malloc) refers to startup_stm32f401xx.o(HEAP) for __heap_base
    mallocr.o(i.__free$realloc) refers to mvars.o(.data) for __microlib_freelist
    mallocr.o(i.__malloc$realloc) refers to mallocr.o(i.internal_alloc) for internal_alloc
    mallocr.o(i.__malloc$realloc) refers to mvars.o(.data) for __microlib_freelist_initialised
    mallocr.o(i.__malloc$realloc) refers to startup_stm32f401xx.o(HEAP) for __heap_base
    mallocr.o(i.__malloc$realloc) refers to mvars.o(.data) for __microlib_freelist
    mallocr.o(i.internal_alloc) refers to memcpya.o(.text) for __aeabi_memcpy
    mallocr.o(i.internal_alloc) refers to mvars.o(.data) for __microlib_freelist
    mallocr.o(i.realloc) refers to mallocr.o(i.__free$realloc) for __free$realloc
    mallocr.o(i.realloc) refers to mallocr.o(i.internal_alloc) for internal_alloc
    mallocr.o(i.realloc) refers to mallocr.o(i.__malloc$realloc) for __malloc$realloc
    mallocr.o(i.realloc) refers to mvars.o(.data) for __microlib_freelist
    malloca.o(i.__aligned_malloc) refers to mvars.o(.data) for __microlib_freelist_initialised
    malloca.o(i.__aligned_malloc) refers to mvars.o(.data) for __microlib_freelist
    malloca.o(i.__aligned_malloc) refers to startup_stm32f401xx.o(HEAP) for __heap_base
    malloca.o(i.__free$memalign) refers to mvars.o(.data) for __microlib_freelist
    malloca.o(i.__malloc$memalign) refers to malloca.o(i.__aligned_malloc) for __aligned_malloc
    mallocra.o(i.__aligned_malloc$realloc) refers to mallocra.o(i.internal_alloc) for internal_alloc
    mallocra.o(i.__aligned_malloc$realloc) refers to mvars.o(.data) for __microlib_freelist_initialised
    mallocra.o(i.__aligned_malloc$realloc) refers to startup_stm32f401xx.o(HEAP) for __heap_base
    mallocra.o(i.__aligned_malloc$realloc) refers to mvars.o(.data) for __microlib_freelist
    mallocra.o(i.__free$realloc$memalign) refers to mvars.o(.data) for __microlib_freelist
    mallocra.o(i.__malloc$realloc$memalign) refers to mallocra.o(i.__aligned_malloc$realloc) for __aligned_malloc$realloc
    mallocra.o(i.__realloc$memalign) refers to mallocra.o(i.__free$realloc$memalign) for __free$realloc$memalign
    mallocra.o(i.__realloc$memalign) refers to mallocra.o(i.internal_alloc) for internal_alloc
    mallocra.o(i.__realloc$memalign) refers to mallocra.o(i.__malloc$realloc$memalign) for __malloc$realloc$memalign
    mallocra.o(i.__realloc$memalign) refers to mvars.o(.data) for __microlib_freelist
    mallocra.o(i.internal_alloc) refers to memcpya.o(.text) for __aeabi_memcpy
    mallocra.o(i.internal_alloc) refers to mvars.o(.data) for __microlib_freelist
    atoi.o(.text) refers to errno.o(i.__aeabi_errno_addr) for __aeabi_errno_addr
    atoi.o(.text) refers to strtol.o(.text) for strtol
    dadd.o(.text) refers (Special) to iusefp.o(.text) for __I$use$fp
    dadd.o(.text) refers to llshl.o(.text) for __aeabi_llsl
    dadd.o(.text) refers to llsshr.o(.text) for __aeabi_lasr
    dadd.o(.text) refers to depilogue.o(.text) for _double_epilogue
    dmul.o(.text) refers (Special) to iusefp.o(.text) for __I$use$fp
    dmul.o(.text) refers to depilogue.o(.text) for _double_epilogue
    ddiv.o(.text) refers (Special) to iusefp.o(.text) for __I$use$fp
    ddiv.o(.text) refers to depilogue.o(.text) for _double_round
    dneg.o(.text) refers (Special) to iusefp.o(.text) for __I$use$fp
    dflti.o(.text) refers (Special) to iusefp.o(.text) for __I$use$fp
    dflti.o(.text) refers to depilogue.o(.text) for _double_epilogue
    dfltui.o(.text) refers (Special) to iusefp.o(.text) for __I$use$fp
    dfltui.o(.text) refers to depilogue.o(.text) for _double_epilogue
    dfixi.o(.text) refers (Special) to iusefp.o(.text) for __I$use$fp
    dfixi.o(.text) refers to llushr.o(.text) for __aeabi_llsr
    dfixui.o(.text) refers (Special) to iusefp.o(.text) for __I$use$fp
    dfixui.o(.text) refers to llushr.o(.text) for __aeabi_llsr
    dfixul.o(.text) refers (Special) to iusefp.o(.text) for __I$use$fp
    dfixul.o(.text) refers to llushr.o(.text) for __aeabi_llsr
    dfixul.o(.text) refers to llshl.o(.text) for __aeabi_llsl
    f2d.o(.text) refers (Special) to iusefp.o(.text) for __I$use$fp
    cdcmple.o(.text) refers (Special) to iusefp.o(.text) for __I$use$fp
    cdrcmple.o(.text) refers (Special) to iusefp.o(.text) for __I$use$fp
    d2f.o(.text) refers (Special) to iusefp.o(.text) for __I$use$fp
    d2f.o(.text) refers to fepilogue.o(.text) for _float_round
    cos_i.o(i.__kernel_cos) refers (Special) to iusefp.o(.text) for __I$use$fp
    cos_i.o(i.__kernel_cos) refers to dfixi.o(.text) for __aeabi_d2iz
    cos_i.o(i.__kernel_cos) refers to dmul.o(.text) for __aeabi_dmul
    cos_i.o(i.__kernel_cos) refers to poly.o(i.__kernel_poly) for __kernel_poly
    cos_i.o(i.__kernel_cos) refers to dadd.o(.text) for __aeabi_dsub
    cos_i.o(i.__kernel_cos) refers to cos_i.o(.constdata) for .constdata
    cos_i.o(.constdata) refers (Special) to iusefp.o(.text) for __I$use$fp
    dunder.o(i.__mathlib_dbl_divzero) refers to ddiv.o(.text) for __aeabi_ddiv
    dunder.o(i.__mathlib_dbl_infnan) refers to dadd.o(.text) for __aeabi_dadd
    dunder.o(i.__mathlib_dbl_infnan2) refers to dadd.o(.text) for __aeabi_dadd
    dunder.o(i.__mathlib_dbl_invalid) refers to ddiv.o(.text) for __aeabi_ddiv
    dunder.o(i.__mathlib_dbl_overflow) refers to dmul.o(.text) for __aeabi_dmul
    dunder.o(i.__mathlib_dbl_posinfnan) refers to dmul.o(.text) for __aeabi_dmul
    dunder.o(i.__mathlib_dbl_underflow) refers to dmul.o(.text) for __aeabi_dmul
    fpclassify.o(i.__ARM_fpclassify) refers (Special) to iusefp.o(.text) for __I$use$fp
    poly.o(i.__kernel_poly) refers (Special) to iusefp.o(.text) for __I$use$fp
    poly.o(i.__kernel_poly) refers to dmul.o(.text) for __aeabi_dmul
    poly.o(i.__kernel_poly) refers to dadd.o(.text) for __aeabi_dadd
    qnan.o(.constdata) refers (Special) to iusefp.o(.text) for __I$use$fp
    rred.o(i.__ieee754_rem_pio2) refers (Special) to iusefp.o(.text) for __I$use$fp
    rred.o(i.__ieee754_rem_pio2) refers to dadd.o(.text) for __aeabi_dsub
    rred.o(i.__ieee754_rem_pio2) refers to fabs.o(i.fabs) for fabs
    rred.o(i.__ieee754_rem_pio2) refers to dmul.o(.text) for __aeabi_dmul
    rred.o(i.__ieee754_rem_pio2) refers to dfixi.o(.text) for __aeabi_d2iz
    rred.o(i.__ieee754_rem_pio2) refers to dflti.o(.text) for __aeabi_i2d
    rred.o(i.__ieee754_rem_pio2) refers to dfltui.o(.text) for __aeabi_ui2d
    rred.o(i.__ieee754_rem_pio2) refers to rred.o(.constdata) for .constdata
    rred.o(i.__use_accurate_range_reduction) refers (Special) to iusefp.o(.text) for __I$use$fp
    rred.o(.constdata) refers (Special) to iusefp.o(.text) for __I$use$fp
    sin_i.o(i.__kernel_sin) refers (Special) to iusefp.o(.text) for __I$use$fp
    sin_i.o(i.__kernel_sin) refers to fpclassify.o(i.__ARM_fpclassify) for __ARM_fpclassify
    sin_i.o(i.__kernel_sin) refers to dunder.o(i.__mathlib_dbl_underflow) for __mathlib_dbl_underflow
    sin_i.o(i.__kernel_sin) refers to dmul.o(.text) for __aeabi_dmul
    sin_i.o(i.__kernel_sin) refers to poly.o(i.__kernel_poly) for __kernel_poly
    sin_i.o(i.__kernel_sin) refers to dadd.o(.text) for __aeabi_dsub
    sin_i.o(i.__kernel_sin) refers to sin_i.o(.constdata) for .constdata
    sin_i.o(.constdata) refers (Special) to iusefp.o(.text) for __I$use$fp
    sin_i_x.o(i.____kernel_sin$lsc) refers (Special) to iusefp.o(.text) for __I$use$fp
    sin_i_x.o(i.____kernel_sin$lsc) refers to dmul.o(.text) for __aeabi_dmul
    sin_i_x.o(i.____kernel_sin$lsc) refers to poly.o(i.__kernel_poly) for __kernel_poly
    sin_i_x.o(i.____kernel_sin$lsc) refers to dadd.o(.text) for __aeabi_dsub
    sin_i_x.o(i.____kernel_sin$lsc) refers to sin_i_x.o(.constdata) for .constdata
    sin_i_x.o(.constdata) refers (Special) to iusefp.o(.text) for __I$use$fp
    entry2.o(.ARM.Collect$$$$00000001) refers to entry2.o(.ARM.Collect$$$$00002712) for __lit__00000000
    entry2.o(.ARM.Collect$$$$00002712) refers to startup_stm32f401xx.o(STACK) for __initial_sp
    entry2.o(__vectab_stack_and_reset_area) refers to startup_stm32f401xx.o(STACK) for __initial_sp
    entry2.o(__vectab_stack_and_reset_area) refers to entry.o(.ARM.Collect$$$$00000000) for __main
    entry5.o(.ARM.Collect$$$$00000004) refers to init.o(.text) for __scatterload
    entry9a.o(.ARM.Collect$$$$0000000B) refers to main.o(i.main) for main
    entry9b.o(.ARM.Collect$$$$0000000C) refers to main.o(i.main) for main
    errno.o(i.__aeabi_errno_addr) refers to errno.o(.data) for .data
    errno.o(i.__read_errno) refers to errno.o(.data) for .data
    errno.o(i.__set_errno) refers to errno.o(.data) for .data
    strtod.o(.text) refers to scanf_fp.o(.text) for _scanf_real
    strtod.o(.text) refers to _sgetc.o(.text) for _sgetc
    strtod.o(.text) refers to isspace_o.o(.text) for isspace
    strtol.o(.text) refers to ctype_o.o(.text) for __rt_ctype_table
    strtol.o(.text) refers to _strtoul.o(.text) for _strtoul
    strtol.o(.text) refers to errno.o(i.__aeabi_errno_addr) for __aeabi_errno_addr
    depilogue.o(.text) refers to llshl.o(.text) for __aeabi_llsl
    depilogue.o(.text) refers to llushr.o(.text) for __aeabi_llsr
    dsqrt.o(.text) refers to llushr.o(.text) for __aeabi_llsr
    dsqrt.o(.text) refers to depilogue.o(.text) for _double_round
    init.o(.text) refers to entry5.o(.ARM.Collect$$$$00000004) for __main_after_scatterload
    isspace_c.o(.text) refers to ctype_c.o(.text) for __ctype_lookup
    ctype_o.o(.text) refers to ctype_o.o(.constdata) for .constdata
    ctype_o.o(.constdata) refers to ctype_o.o(.constdata) for __ctype_table
    isalnum_o.o(.text) refers to ctype_o.o(.text) for __rt_ctype_table
    isalpha_o.o(.text) refers to ctype_o.o(.text) for __rt_ctype_table
    isblank_o.o(.text) refers to ctype_o.o(.constdata) for __ctype_table
    iscntrl_o.o(.text) refers to ctype_o.o(.text) for __rt_ctype_table
    isdigit_o.o(.text) refers to ctype_o.o(.text) for __rt_ctype_table
    isgraph_o.o(.text) refers to ctype_o.o(.text) for __rt_ctype_table
    islower_o.o(.text) refers to ctype_o.o(.text) for __rt_ctype_table
    isprint_o.o(.text) refers to ctype_o.o(.text) for __rt_ctype_table
    ispunct_o.o(.text) refers to ctype_o.o(.text) for __rt_ctype_table
    isspace_o.o(.text) refers to ctype_o.o(.text) for __rt_ctype_table
    isupper_o.o(.text) refers to ctype_o.o(.text) for __rt_ctype_table
    isxdigit_o.o(.text) refers to ctype_o.o(.text) for __rt_ctype_table
    scanf_fp.o(.text) refers (Special) to iusefp.o(.text) for __I$use$fp
    scanf_fp.o(.text) refers to dfltul.o(.text) for __aeabi_ul2d
    scanf_fp.o(.text) refers to dmul.o(.text) for __aeabi_dmul
    scanf_fp.o(.text) refers to ddiv.o(.text) for __aeabi_ddiv
    scanf_fp.o(.text) refers to scanf_fp.o(i._is_digit) for _is_digit
    scanf_fp.o(.text) refers to d2f.o(.text) for __aeabi_d2f
    _strtoul.o(.text) refers to _chval.o(.text) for _chval
    _strtoul.o(.text) refers to errno.o(i.__aeabi_errno_addr) for __aeabi_errno_addr
    ctype_c.o(.text) refers to ctype_c.o(.constdata) for .constdata
    dfltul.o(.text) refers to depilogue.o(.text) for _double_epilogue
    scanf_fp.o(i._is_digit) refers (Special) to iusefp.o(.text) for __I$use$fp


==============================================================================

Removing Unused input sections from the image.

    Removing misc.o(.rev16_text), (4 bytes).
    Removing misc.o(.revsh_text), (4 bytes).
    Removing misc.o(i.NVIC_SystemLPConfig), (32 bytes).
    Removing stm32f4xx_gpio.o(.rev16_text), (4 bytes).
    Removing stm32f4xx_gpio.o(.revsh_text), (4 bytes).
    Removing stm32f4xx_gpio.o(i.GPIO_DeInit), (312 bytes).
    Removing stm32f4xx_gpio.o(i.GPIO_PinLockConfig), (34 bytes).
    Removing stm32f4xx_gpio.o(i.GPIO_ReadInputData), (8 bytes).
    Removing stm32f4xx_gpio.o(i.GPIO_ReadInputDataBit), (18 bytes).
    Removing stm32f4xx_gpio.o(i.GPIO_ReadOutputData), (8 bytes).
    Removing stm32f4xx_gpio.o(i.GPIO_ReadOutputDataBit), (18 bytes).
    Removing stm32f4xx_gpio.o(i.GPIO_StructInit), (18 bytes).
    Removing stm32f4xx_gpio.o(i.GPIO_ToggleBits), (8 bytes).
    Removing stm32f4xx_gpio.o(i.GPIO_Write), (4 bytes).
    Removing stm32f4xx_gpio.o(i.GPIO_WriteBit), (10 bytes).
    Removing stm32f4xx_rcc.o(.rev16_text), (4 bytes).
    Removing stm32f4xx_rcc.o(.revsh_text), (4 bytes).
    Removing stm32f4xx_rcc.o(i.RCC_AHB1PeriphClockLPModeCmd), (32 bytes).
    Removing stm32f4xx_rcc.o(i.RCC_AHB1PeriphResetCmd), (32 bytes).
    Removing stm32f4xx_rcc.o(i.RCC_AHB2PeriphClockCmd), (32 bytes).
    Removing stm32f4xx_rcc.o(i.RCC_AHB2PeriphClockLPModeCmd), (32 bytes).
    Removing stm32f4xx_rcc.o(i.RCC_AHB2PeriphResetCmd), (32 bytes).
    Removing stm32f4xx_rcc.o(i.RCC_AHB3PeriphClockCmd), (32 bytes).
    Removing stm32f4xx_rcc.o(i.RCC_AHB3PeriphClockLPModeCmd), (32 bytes).
    Removing stm32f4xx_rcc.o(i.RCC_AHB3PeriphResetCmd), (32 bytes).
    Removing stm32f4xx_rcc.o(i.RCC_APB1PeriphClockLPModeCmd), (32 bytes).
    Removing stm32f4xx_rcc.o(i.RCC_APB1PeriphResetCmd), (32 bytes).
    Removing stm32f4xx_rcc.o(i.RCC_APB2PeriphClockLPModeCmd), (32 bytes).
    Removing stm32f4xx_rcc.o(i.RCC_APB2PeriphResetCmd), (32 bytes).
    Removing stm32f4xx_rcc.o(i.RCC_AdjustHSICalibrationValue), (24 bytes).
    Removing stm32f4xx_rcc.o(i.RCC_BackupResetCmd), (12 bytes).
    Removing stm32f4xx_rcc.o(i.RCC_ClearFlag), (20 bytes).
    Removing stm32f4xx_rcc.o(i.RCC_ClearITPendingBit), (12 bytes).
    Removing stm32f4xx_rcc.o(i.RCC_ClockSecuritySystemCmd), (12 bytes).
    Removing stm32f4xx_rcc.o(i.RCC_DeInit), (100 bytes).
    Removing stm32f4xx_rcc.o(i.RCC_GetFlagStatus), (64 bytes).
    Removing stm32f4xx_rcc.o(i.RCC_GetITStatus), (24 bytes).
    Removing stm32f4xx_rcc.o(i.RCC_GetSYSCLKSource), (16 bytes).
    Removing stm32f4xx_rcc.o(i.RCC_HCLKConfig), (24 bytes).
    Removing stm32f4xx_rcc.o(i.RCC_HSEConfig), (16 bytes).
    Removing stm32f4xx_rcc.o(i.RCC_HSICmd), (12 bytes).
    Removing stm32f4xx_rcc.o(i.RCC_I2SCLKConfig), (12 bytes).
    Removing stm32f4xx_rcc.o(i.RCC_ITConfig), (32 bytes).
    Removing stm32f4xx_rcc.o(i.RCC_LSEConfig), (44 bytes).
    Removing stm32f4xx_rcc.o(i.RCC_LSEModeConfig), (36 bytes).
    Removing stm32f4xx_rcc.o(i.RCC_LSICmd), (12 bytes).
    Removing stm32f4xx_rcc.o(i.RCC_LTDCCLKDivConfig), (24 bytes).
    Removing stm32f4xx_rcc.o(i.RCC_MCO1Config), (28 bytes).
    Removing stm32f4xx_rcc.o(i.RCC_MCO2Config), (28 bytes).
    Removing stm32f4xx_rcc.o(i.RCC_PCLK1Config), (24 bytes).
    Removing stm32f4xx_rcc.o(i.RCC_PCLK2Config), (24 bytes).
    Removing stm32f4xx_rcc.o(i.RCC_PLLCmd), (12 bytes).
    Removing stm32f4xx_rcc.o(i.RCC_PLLConfig), (36 bytes).
    Removing stm32f4xx_rcc.o(i.RCC_PLLI2SCmd), (12 bytes).
    Removing stm32f4xx_rcc.o(i.RCC_PLLI2SConfig), (16 bytes).
    Removing stm32f4xx_rcc.o(i.RCC_PLLSAICmd), (12 bytes).
    Removing stm32f4xx_rcc.o(i.RCC_PLLSAIConfig), (24 bytes).
    Removing stm32f4xx_rcc.o(i.RCC_RTCCLKCmd), (12 bytes).
    Removing stm32f4xx_rcc.o(i.RCC_RTCCLKConfig), (60 bytes).
    Removing stm32f4xx_rcc.o(i.RCC_SAIBlockACLKConfig), (24 bytes).
    Removing stm32f4xx_rcc.o(i.RCC_SAIBlockBCLKConfig), (24 bytes).
    Removing stm32f4xx_rcc.o(i.RCC_SAIPLLI2SClkDivConfig), (28 bytes).
    Removing stm32f4xx_rcc.o(i.RCC_SAIPLLSAIClkDivConfig), (28 bytes).
    Removing stm32f4xx_rcc.o(i.RCC_SYSCLKConfig), (24 bytes).
    Removing stm32f4xx_rcc.o(i.RCC_TIMCLKPresConfig), (12 bytes).
    Removing stm32f4xx_rcc.o(i.RCC_WaitForHSEStartUp), (56 bytes).
    Removing stm32f4xx_syscfg.o(.rev16_text), (4 bytes).
    Removing stm32f4xx_syscfg.o(.revsh_text), (4 bytes).
    Removing stm32f4xx_syscfg.o(i.SYSCFG_CompensationCellCmd), (12 bytes).
    Removing stm32f4xx_syscfg.o(i.SYSCFG_DeInit), (22 bytes).
    Removing stm32f4xx_syscfg.o(i.SYSCFG_ETH_MediaInterfaceConfig), (12 bytes).
    Removing stm32f4xx_syscfg.o(i.SYSCFG_GetCompensationCellStatus), (24 bytes).
    Removing stm32f4xx_syscfg.o(i.SYSCFG_MemoryRemapConfig), (12 bytes).
    Removing stm32f4xx_syscfg.o(i.SYSCFG_MemorySwappingBank), (12 bytes).
    Removing stm32f4xx_usart.o(.rev16_text), (4 bytes).
    Removing stm32f4xx_usart.o(.revsh_text), (4 bytes).
    Removing stm32f4xx_usart.o(i.USART_ClockInit), (32 bytes).
    Removing stm32f4xx_usart.o(i.USART_ClockStructInit), (12 bytes).
    Removing stm32f4xx_usart.o(i.USART_DeInit), (240 bytes).
    Removing stm32f4xx_usart.o(i.USART_HalfDuplexCmd), (24 bytes).
    Removing stm32f4xx_usart.o(i.USART_IrDACmd), (24 bytes).
    Removing stm32f4xx_usart.o(i.USART_IrDAConfig), (18 bytes).
    Removing stm32f4xx_usart.o(i.USART_LINBreakDetectLengthConfig), (18 bytes).
    Removing stm32f4xx_usart.o(i.USART_LINCmd), (24 bytes).
    Removing stm32f4xx_usart.o(i.USART_OneBitMethodCmd), (24 bytes).
    Removing stm32f4xx_usart.o(i.USART_OverSampling8Cmd), (22 bytes).
    Removing stm32f4xx_usart.o(i.USART_ReceiverWakeUpCmd), (24 bytes).
    Removing stm32f4xx_usart.o(i.USART_SendBreak), (10 bytes).
    Removing stm32f4xx_usart.o(i.USART_SetAddress), (18 bytes).
    Removing stm32f4xx_usart.o(i.USART_SetGuardTime), (16 bytes).
    Removing stm32f4xx_usart.o(i.USART_SetPrescaler), (16 bytes).
    Removing stm32f4xx_usart.o(i.USART_SmartCardCmd), (24 bytes).
    Removing stm32f4xx_usart.o(i.USART_SmartCardNACKCmd), (24 bytes).
    Removing stm32f4xx_usart.o(i.USART_StructInit), (24 bytes).
    Removing stm32f4xx_usart.o(i.USART_WakeUpConfig), (18 bytes).
    Removing stm32f4xx_i2c.o(.rev16_text), (4 bytes).
    Removing stm32f4xx_i2c.o(.revsh_text), (4 bytes).
    Removing stm32f4xx_i2c.o(i.I2C_ARPCmd), (24 bytes).
    Removing stm32f4xx_i2c.o(i.I2C_AcknowledgeConfig), (24 bytes).
    Removing stm32f4xx_i2c.o(i.I2C_AnalogFilterCmd), (24 bytes).
    Removing stm32f4xx_i2c.o(i.I2C_CalculatePEC), (24 bytes).
    Removing stm32f4xx_i2c.o(i.I2C_CheckEvent), (42 bytes).
    Removing stm32f4xx_i2c.o(i.I2C_ClearFlag), (12 bytes).
    Removing stm32f4xx_i2c.o(i.I2C_ClearITPendingBit), (12 bytes).
    Removing stm32f4xx_i2c.o(i.I2C_Cmd), (24 bytes).
    Removing stm32f4xx_i2c.o(i.I2C_DMACmd), (24 bytes).
    Removing stm32f4xx_i2c.o(i.I2C_DMALastTransferCmd), (24 bytes).
    Removing stm32f4xx_i2c.o(i.I2C_DeInit), (96 bytes).
    Removing stm32f4xx_i2c.o(i.I2C_DigitalFilterConfig), (22 bytes).
    Removing stm32f4xx_i2c.o(i.I2C_DualAddressCmd), (24 bytes).
    Removing stm32f4xx_i2c.o(i.I2C_FastModeDutyCycleConfig), (28 bytes).
    Removing stm32f4xx_i2c.o(i.I2C_GeneralCallCmd), (24 bytes).
    Removing stm32f4xx_i2c.o(i.I2C_GenerateSTART), (24 bytes).
    Removing stm32f4xx_i2c.o(i.I2C_GenerateSTOP), (24 bytes).
    Removing stm32f4xx_i2c.o(i.I2C_GetFlagStatus), (58 bytes).
    Removing stm32f4xx_i2c.o(i.I2C_GetITStatus), (38 bytes).
    Removing stm32f4xx_i2c.o(i.I2C_GetLastEvent), (26 bytes).
    Removing stm32f4xx_i2c.o(i.I2C_GetPEC), (8 bytes).
    Removing stm32f4xx_i2c.o(i.I2C_ITConfig), (18 bytes).
    Removing stm32f4xx_i2c.o(i.I2C_Init), (232 bytes).
    Removing stm32f4xx_i2c.o(i.I2C_NACKPositionConfig), (28 bytes).
    Removing stm32f4xx_i2c.o(i.I2C_OwnAddress2Config), (22 bytes).
    Removing stm32f4xx_i2c.o(i.I2C_PECPositionConfig), (28 bytes).
    Removing stm32f4xx_i2c.o(i.I2C_ReadRegister), (22 bytes).
    Removing stm32f4xx_i2c.o(i.I2C_ReceiveData), (8 bytes).
    Removing stm32f4xx_i2c.o(i.I2C_SMBusAlertConfig), (28 bytes).
    Removing stm32f4xx_i2c.o(i.I2C_Send7bitAddress), (16 bytes).
    Removing stm32f4xx_i2c.o(i.I2C_SendData), (4 bytes).
    Removing stm32f4xx_i2c.o(i.I2C_SoftwareResetCmd), (22 bytes).
    Removing stm32f4xx_i2c.o(i.I2C_StretchClockCmd), (24 bytes).
    Removing stm32f4xx_i2c.o(i.I2C_StructInit), (30 bytes).
    Removing stm32f4xx_i2c.o(i.I2C_TransmitPEC), (24 bytes).
    Removing stm32f4xx_spi.o(.rev16_text), (4 bytes).
    Removing stm32f4xx_spi.o(.revsh_text), (4 bytes).
    Removing stm32f4xx_spi.o(i.I2S_Cmd), (24 bytes).
    Removing stm32f4xx_spi.o(i.I2S_FullDuplexConfig), (80 bytes).
    Removing stm32f4xx_spi.o(i.I2S_Init), (408 bytes).
    Removing stm32f4xx_spi.o(i.I2S_StructInit), (20 bytes).
    Removing stm32f4xx_spi.o(i.SPI_BiDirectionalLineConfig), (28 bytes).
    Removing stm32f4xx_spi.o(i.SPI_CalculateCRC), (24 bytes).
    Removing stm32f4xx_spi.o(i.SPI_DataSizeConfig), (18 bytes).
    Removing stm32f4xx_spi.o(i.SPI_GetCRC), (16 bytes).
    Removing stm32f4xx_spi.o(i.SPI_GetCRCPolynomial), (6 bytes).
    Removing stm32f4xx_spi.o(i.SPI_I2S_ClearFlag), (6 bytes).
    Removing stm32f4xx_spi.o(i.SPI_I2S_ClearITPendingBit), (20 bytes).
    Removing stm32f4xx_spi.o(i.SPI_I2S_DMACmd), (18 bytes).
    Removing stm32f4xx_spi.o(i.SPI_I2S_DeInit), (176 bytes).
    Removing stm32f4xx_spi.o(i.SPI_I2S_GetITStatus), (52 bytes).
    Removing stm32f4xx_spi.o(i.SPI_I2S_ITConfig), (32 bytes).
    Removing stm32f4xx_spi.o(i.SPI_NSSInternalSoftwareConfig), (30 bytes).
    Removing stm32f4xx_spi.o(i.SPI_SSOutputCmd), (24 bytes).
    Removing stm32f4xx_spi.o(i.SPI_StructInit), (24 bytes).
    Removing stm32f4xx_spi.o(i.SPI_TIModeCmd), (24 bytes).
    Removing stm32f4xx_spi.o(i.SPI_TransmitCRC), (10 bytes).
    Removing stm32f4xx_tim.o(.rev16_text), (4 bytes).
    Removing stm32f4xx_tim.o(.revsh_text), (4 bytes).
    Removing stm32f4xx_tim.o(i.TI1_Config), (58 bytes).
    Removing stm32f4xx_tim.o(i.TI2_Config), (80 bytes).
    Removing stm32f4xx_tim.o(i.TI3_Config), (72 bytes).
    Removing stm32f4xx_tim.o(i.TI4_Config), (80 bytes).
    Removing stm32f4xx_tim.o(i.TIM_ARRPreloadConfig), (24 bytes).
    Removing stm32f4xx_tim.o(i.TIM_BDTRConfig), (32 bytes).
    Removing stm32f4xx_tim.o(i.TIM_BDTRStructInit), (18 bytes).
    Removing stm32f4xx_tim.o(i.TIM_CCPreloadControl), (24 bytes).
    Removing stm32f4xx_tim.o(i.TIM_CCxCmd), (30 bytes).
    Removing stm32f4xx_tim.o(i.TIM_CCxNCmd), (30 bytes).
    Removing stm32f4xx_tim.o(i.TIM_ClearFlag), (6 bytes).
    Removing stm32f4xx_tim.o(i.TIM_ClearOC1Ref), (18 bytes).
    Removing stm32f4xx_tim.o(i.TIM_ClearOC2Ref), (24 bytes).
    Removing stm32f4xx_tim.o(i.TIM_ClearOC3Ref), (18 bytes).
    Removing stm32f4xx_tim.o(i.TIM_ClearOC4Ref), (24 bytes).
    Removing stm32f4xx_tim.o(i.TIM_CounterModeConfig), (18 bytes).
    Removing stm32f4xx_tim.o(i.TIM_CtrlPWMOutputs), (30 bytes).
    Removing stm32f4xx_tim.o(i.TIM_DMACmd), (18 bytes).
    Removing stm32f4xx_tim.o(i.TIM_DMAConfig), (10 bytes).
    Removing stm32f4xx_tim.o(i.TIM_DeInit), (400 bytes).
    Removing stm32f4xx_tim.o(i.TIM_ETRClockMode1Config), (54 bytes).
    Removing stm32f4xx_tim.o(i.TIM_ETRClockMode2Config), (32 bytes).
    Removing stm32f4xx_tim.o(i.TIM_ETRConfig), (28 bytes).
    Removing stm32f4xx_tim.o(i.TIM_EncoderInterfaceConfig), (66 bytes).
    Removing stm32f4xx_tim.o(i.TIM_ForcedOC1Config), (18 bytes).
    Removing stm32f4xx_tim.o(i.TIM_ForcedOC2Config), (26 bytes).
    Removing stm32f4xx_tim.o(i.TIM_ForcedOC3Config), (18 bytes).
    Removing stm32f4xx_tim.o(i.TIM_ForcedOC4Config), (26 bytes).
    Removing stm32f4xx_tim.o(i.TIM_GenerateEvent), (4 bytes).
    Removing stm32f4xx_tim.o(i.TIM_GetCapture1), (6 bytes).
    Removing stm32f4xx_tim.o(i.TIM_GetCapture2), (6 bytes).
    Removing stm32f4xx_tim.o(i.TIM_GetCapture3), (6 bytes).
    Removing stm32f4xx_tim.o(i.TIM_GetCapture4), (6 bytes).
    Removing stm32f4xx_tim.o(i.TIM_GetCounter), (6 bytes).
    Removing stm32f4xx_tim.o(i.TIM_GetFlagStatus), (18 bytes).
    Removing stm32f4xx_tim.o(i.TIM_GetITStatus), (34 bytes).
    Removing stm32f4xx_tim.o(i.TIM_GetPrescaler), (6 bytes).
    Removing stm32f4xx_tim.o(i.TIM_ICInit), (110 bytes).
    Removing stm32f4xx_tim.o(i.TIM_ICStructInit), (18 bytes).
    Removing stm32f4xx_tim.o(i.TIM_ITRxExternalClockConfig), (24 bytes).
    Removing stm32f4xx_tim.o(i.TIM_InternalClockConfig), (12 bytes).
    Removing stm32f4xx_tim.o(i.TIM_OC1FastConfig), (18 bytes).
    Removing stm32f4xx_tim.o(i.TIM_OC1Init), (124 bytes).
    Removing stm32f4xx_tim.o(i.TIM_OC1NPolarityConfig), (18 bytes).
    Removing stm32f4xx_tim.o(i.TIM_OC1PolarityConfig), (18 bytes).
    Removing stm32f4xx_tim.o(i.TIM_OC1PreloadConfig), (18 bytes).
    Removing stm32f4xx_tim.o(i.TIM_OC2FastConfig), (26 bytes).
    Removing stm32f4xx_tim.o(i.TIM_OC2Init), (164 bytes).
    Removing stm32f4xx_tim.o(i.TIM_OC2NPolarityConfig), (26 bytes).
    Removing stm32f4xx_tim.o(i.TIM_OC2PolarityConfig), (26 bytes).
    Removing stm32f4xx_tim.o(i.TIM_OC2PreloadConfig), (26 bytes).
    Removing stm32f4xx_tim.o(i.TIM_OC3FastConfig), (18 bytes).
    Removing stm32f4xx_tim.o(i.TIM_OC3Init), (160 bytes).
    Removing stm32f4xx_tim.o(i.TIM_OC3NPolarityConfig), (26 bytes).
    Removing stm32f4xx_tim.o(i.TIM_OC3PolarityConfig), (26 bytes).
    Removing stm32f4xx_tim.o(i.TIM_OC3PreloadConfig), (18 bytes).
    Removing stm32f4xx_tim.o(i.TIM_OC4FastConfig), (26 bytes).
    Removing stm32f4xx_tim.o(i.TIM_OC4Init), (120 bytes).
    Removing stm32f4xx_tim.o(i.TIM_OC4PolarityConfig), (26 bytes).
    Removing stm32f4xx_tim.o(i.TIM_OC4PreloadConfig), (26 bytes).
    Removing stm32f4xx_tim.o(i.TIM_OCStructInit), (20 bytes).
    Removing stm32f4xx_tim.o(i.TIM_PWMIConfig), (124 bytes).
    Removing stm32f4xx_tim.o(i.TIM_PrescalerConfig), (6 bytes).
    Removing stm32f4xx_tim.o(i.TIM_RemapConfig), (6 bytes).
    Removing stm32f4xx_tim.o(i.TIM_SelectCCDMA), (24 bytes).
    Removing stm32f4xx_tim.o(i.TIM_SelectCOM), (24 bytes).
    Removing stm32f4xx_tim.o(i.TIM_SelectHallSensor), (24 bytes).
    Removing stm32f4xx_tim.o(i.TIM_SelectInputTrigger), (18 bytes).
    Removing stm32f4xx_tim.o(i.TIM_SelectMasterSlaveMode), (18 bytes).
    Removing stm32f4xx_tim.o(i.TIM_SelectOCxM), (86 bytes).
    Removing stm32f4xx_tim.o(i.TIM_SelectOnePulseMode), (18 bytes).
    Removing stm32f4xx_tim.o(i.TIM_SelectOutputTrigger), (18 bytes).
    Removing stm32f4xx_tim.o(i.TIM_SelectSlaveMode), (18 bytes).
    Removing stm32f4xx_tim.o(i.TIM_SetAutoreload), (4 bytes).
    Removing stm32f4xx_tim.o(i.TIM_SetClockDivision), (18 bytes).
    Removing stm32f4xx_tim.o(i.TIM_SetCompare1), (4 bytes).
    Removing stm32f4xx_tim.o(i.TIM_SetCompare2), (4 bytes).
    Removing stm32f4xx_tim.o(i.TIM_SetCompare3), (4 bytes).
    Removing stm32f4xx_tim.o(i.TIM_SetCompare4), (4 bytes).
    Removing stm32f4xx_tim.o(i.TIM_SetCounter), (4 bytes).
    Removing stm32f4xx_tim.o(i.TIM_SetIC1Prescaler), (18 bytes).
    Removing stm32f4xx_tim.o(i.TIM_SetIC2Prescaler), (26 bytes).
    Removing stm32f4xx_tim.o(i.TIM_SetIC3Prescaler), (18 bytes).
    Removing stm32f4xx_tim.o(i.TIM_SetIC4Prescaler), (26 bytes).
    Removing stm32f4xx_tim.o(i.TIM_TIxExternalClockConfig), (62 bytes).
    Removing stm32f4xx_tim.o(i.TIM_TimeBaseStructInit), (18 bytes).
    Removing stm32f4xx_tim.o(i.TIM_UpdateDisableConfig), (24 bytes).
    Removing stm32f4xx_tim.o(i.TIM_UpdateRequestConfig), (24 bytes).
    Removing stm32f4xx_flash.o(.rev16_text), (4 bytes).
    Removing stm32f4xx_flash.o(.revsh_text), (4 bytes).
    Removing stm32f4xx_flash.o(i.FLASH_ClearFlag), (12 bytes).
    Removing stm32f4xx_flash.o(i.FLASH_DataCacheReset), (20 bytes).
    Removing stm32f4xx_flash.o(i.FLASH_EraseAllBank1Sectors), (108 bytes).
    Removing stm32f4xx_flash.o(i.FLASH_EraseAllBank2Sectors), (108 bytes).
    Removing stm32f4xx_flash.o(i.FLASH_EraseAllSectors), (108 bytes).
    Removing stm32f4xx_flash.o(i.FLASH_GetFlagStatus), (24 bytes).
    Removing stm32f4xx_flash.o(i.FLASH_ITConfig), (32 bytes).
    Removing stm32f4xx_flash.o(i.FLASH_InstructionCacheCmd), (36 bytes).
    Removing stm32f4xx_flash.o(i.FLASH_InstructionCacheReset), (20 bytes).
    Removing stm32f4xx_flash.o(i.FLASH_OB_BORConfig), (28 bytes).
    Removing stm32f4xx_flash.o(i.FLASH_OB_BootConfig), (28 bytes).
    Removing stm32f4xx_flash.o(i.FLASH_OB_GetBOR), (16 bytes).
    Removing stm32f4xx_flash.o(i.FLASH_OB_GetPCROP), (12 bytes).
    Removing stm32f4xx_flash.o(i.FLASH_OB_GetPCROP1), (12 bytes).
    Removing stm32f4xx_flash.o(i.FLASH_OB_GetRDP), (24 bytes).
    Removing stm32f4xx_flash.o(i.FLASH_OB_GetUser), (16 bytes).
    Removing stm32f4xx_flash.o(i.FLASH_OB_GetWRP), (12 bytes).
    Removing stm32f4xx_flash.o(i.FLASH_OB_GetWRP1), (12 bytes).
    Removing stm32f4xx_flash.o(i.FLASH_OB_Launch), (32 bytes).
    Removing stm32f4xx_flash.o(i.FLASH_OB_Lock), (20 bytes).
    Removing stm32f4xx_flash.o(i.FLASH_OB_PCROP1Config), (52 bytes).
    Removing stm32f4xx_flash.o(i.FLASH_OB_PCROPConfig), (52 bytes).
    Removing stm32f4xx_flash.o(i.FLASH_OB_PCROPSelectionConfig), (24 bytes).
    Removing stm32f4xx_flash.o(i.FLASH_OB_RDPConfig), (28 bytes).
    Removing stm32f4xx_flash.o(i.FLASH_OB_Unlock), (36 bytes).
    Removing stm32f4xx_flash.o(i.FLASH_OB_UserConfig), (48 bytes).
    Removing stm32f4xx_flash.o(i.FLASH_OB_WRP1Config), (52 bytes).
    Removing stm32f4xx_flash.o(i.FLASH_OB_WRPConfig), (52 bytes).
    Removing stm32f4xx_flash.o(i.FLASH_PrefetchBufferCmd), (36 bytes).
    Removing stm32f4xx_flash.o(i.FLASH_ProgramByte), (76 bytes).
    Removing stm32f4xx_flash.o(i.FLASH_ProgramDoubleWord), (84 bytes).
    Removing stm32f4xx_flash.o(i.FLASH_ProgramHalfWord), (80 bytes).
    Removing stm32f4xx_flash.o(i.FLASH_SetLatency), (12 bytes).
    Removing stm32f4xx_dma.o(.rev16_text), (4 bytes).
    Removing stm32f4xx_dma.o(.revsh_text), (4 bytes).
    Removing stm32f4xx_dma.o(i.DMA_ClearITPendingBit), (52 bytes).
    Removing stm32f4xx_dma.o(i.DMA_DoubleBufferModeCmd), (22 bytes).
    Removing stm32f4xx_dma.o(i.DMA_DoubleBufferModeConfig), (24 bytes).
    Removing stm32f4xx_dma.o(i.DMA_FlowControllerConfig), (22 bytes).
    Removing stm32f4xx_dma.o(i.DMA_GetCurrDataCounter), (8 bytes).
    Removing stm32f4xx_dma.o(i.DMA_GetCurrentMemoryTarget), (20 bytes).
    Removing stm32f4xx_dma.o(i.DMA_GetFIFOStatus), (12 bytes).
    Removing stm32f4xx_dma.o(i.DMA_GetITStatus), (100 bytes).
    Removing stm32f4xx_dma.o(i.DMA_MemoryTargetConfig), (10 bytes).
    Removing stm32f4xx_dma.o(i.DMA_PeriphIncOffsetSizeConfig), (22 bytes).
    Removing stm32f4xx_dma.o(i.DMA_SetCurrDataCounter), (4 bytes).
    Removing stm32f4xx_dma.o(i.DMA_StructInit), (34 bytes).
    Removing stm32f4xx_iwdg.o(.rev16_text), (4 bytes).
    Removing stm32f4xx_iwdg.o(.revsh_text), (4 bytes).
    Removing stm32f4xx_iwdg.o(i.IWDG_Enable), (16 bytes).
    Removing stm32f4xx_iwdg.o(i.IWDG_GetFlagStatus), (24 bytes).
    Removing stm32f4xx_iwdg.o(i.IWDG_SetPrescaler), (12 bytes).
    Removing stm32f4xx_iwdg.o(i.IWDG_SetReload), (12 bytes).
    Removing stm32f4xx_iwdg.o(i.IWDG_WriteAccessCmd), (12 bytes).
    Removing stm32f4xx_exti.o(.rev16_text), (4 bytes).
    Removing stm32f4xx_exti.o(.revsh_text), (4 bytes).
    Removing stm32f4xx_exti.o(i.EXTI_ClearFlag), (12 bytes).
    Removing stm32f4xx_exti.o(i.EXTI_DeInit), (36 bytes).
    Removing stm32f4xx_exti.o(i.EXTI_GenerateSWInterrupt), (16 bytes).
    Removing stm32f4xx_exti.o(i.EXTI_GetFlagStatus), (24 bytes).
    Removing stm32f4xx_exti.o(i.EXTI_StructInit), (16 bytes).
    Removing stm32f4xx_pwr.o(.rev16_text), (4 bytes).
    Removing stm32f4xx_pwr.o(.revsh_text), (4 bytes).
    Removing stm32f4xx_pwr.o(i.PWR_BackupAccessCmd), (12 bytes).
    Removing stm32f4xx_pwr.o(i.PWR_BackupRegulatorCmd), (12 bytes).
    Removing stm32f4xx_pwr.o(i.PWR_DeInit), (22 bytes).
    Removing stm32f4xx_pwr.o(i.PWR_EnterUnderDriveSTOPMode), (68 bytes).
    Removing stm32f4xx_pwr.o(i.PWR_FlashPowerDownCmd), (12 bytes).
    Removing stm32f4xx_pwr.o(i.PWR_GetFlagStatus), (24 bytes).
    Removing stm32f4xx_pwr.o(i.PWR_LowRegulatorLowVoltageCmd), (24 bytes).
    Removing stm32f4xx_pwr.o(i.PWR_MainRegulatorLowVoltageCmd), (24 bytes).
    Removing stm32f4xx_pwr.o(i.PWR_MainRegulatorModeConfig), (24 bytes).
    Removing stm32f4xx_pwr.o(i.PWR_OverDriveCmd), (12 bytes).
    Removing stm32f4xx_pwr.o(i.PWR_OverDriveSWCmd), (12 bytes).
    Removing stm32f4xx_pwr.o(i.PWR_PVDCmd), (12 bytes).
    Removing stm32f4xx_pwr.o(i.PWR_PVDLevelConfig), (24 bytes).
    Removing stm32f4xx_pwr.o(i.PWR_UnderDriveCmd), (36 bytes).
    Removing commdata.o(.rev16_text), (4 bytes).
    Removing commdata.o(.revsh_text), (4 bytes).
    Removing main.o(.rev16_text), (4 bytes).
    Removing main.o(.revsh_text), (4 bytes).
    Removing stm32f4xx_it.o(.rev16_text), (4 bytes).
    Removing stm32f4xx_it.o(.revsh_text), (4 bytes).
    Removing system_stm32f4xx.o(.rev16_text), (4 bytes).
    Removing system_stm32f4xx.o(.revsh_text), (4 bytes).
    Removing system_stm32f4xx.o(i.SystemCoreClockUpdate), (192 bytes).
    Removing system_stm32f4xx.o(.data), (20 bytes).
    Removing hw_config.o(.rev16_text), (4 bytes).
    Removing hw_config.o(.revsh_text), (4 bytes).
    Removing hw_config.o(.data), (16 bytes).
    Removing 24cxx.o(.rev16_text), (4 bytes).
    Removing 24cxx.o(.revsh_text), (4 bytes).
    Removing 24cxx.o(i.AT24CXX_Check), (56 bytes).
    Removing 24cxx.o(i.AT24CXX_Init), (8 bytes).
    Removing 24cxx.o(i.AT24CXX_Read), (34 bytes).
    Removing 24cxx.o(i.AT24CXX_ReadLenByte), (44 bytes).
    Removing 24cxx.o(i.AT24CXX_ReadOneByte), (104 bytes).
    Removing 24cxx.o(i.AT24CXX_Write), (36 bytes).
    Removing 24cxx.o(i.AT24CXX_WriteLenByte), (42 bytes).
    Removing 24cxx.o(i.AT24CXX_WriteOneByte), (88 bytes).
    Removing 24cxx.o(i.II2C_ReadOneByte), (72 bytes).
    Removing 24cxx.o(i.II2C_WriteOneByte), (60 bytes).
    Removing delay.o(.rev16_text), (4 bytes).
    Removing delay.o(.revsh_text), (4 bytes).
    Removing spi.o(.rev16_text), (4 bytes).
    Removing spi.o(.revsh_text), (4 bytes).
    Removing stmflash.o(.rev16_text), (4 bytes).
    Removing stmflash.o(.revsh_text), (4 bytes).
    Removing getnass.o(.rev16_text), (4 bytes).
    Removing getnass.o(.revsh_text), (4 bytes).
    Removing getgps.o(.rev16_text), (4 bytes).
    Removing getgps.o(.revsh_text), (4 bytes).
    Removing getgps.o(i.GpsBDOpen), (232 bytes).
    Removing getacc.o(.rev16_text), (4 bytes).
    Removing getacc.o(.revsh_text), (4 bytes).
    Removing getacc.o(i.Interrupt_Close), (52 bytes).
    Removing getacc.o(i.Interrupt_Tap_sensing), (260 bytes).
    Removing getgyr.o(.rev16_text), (4 bytes).
    Removing getgyr.o(.revsh_text), (4 bytes).
    Removing myiic.o(.rev16_text), (4 bytes).
    Removing myiic.o(.revsh_text), (4 bytes).
    Removing myiic.o(i.Hard_IICWaiteStandby), (68 bytes).
    Removing myiic.o(i.Hard_IICWriteOneByte), (304 bytes).
    Removing myiic.o(i.Hard_IIC_PageRead), (424 bytes).
    Removing myiic.o(i.Hard_IIC_ReadOneByte), (444 bytes).
    Removing myiic.o(i.Hard_IIC_WriteNByte), (328 bytes).
    Removing getimu.o(.rev16_text), (4 bytes).
    Removing getimu.o(.revsh_text), (4 bytes).
    Removing getimu.o(i.IMUData_Deal_New), (712 bytes).
    Removing sendgps.o(.rev16_text), (4 bytes).
    Removing sendgps.o(.revsh_text), (4 bytes).
    Removing sendgps.o(i.ProcessATOA), (232 bytes).
    Removing sendgps.o(i.ProcessLSFTOA), (864 bytes).
    Removing sendgps.o(i.ProcessPSFTOA), (1132 bytes).
    Removing sendgps.o(.bss), (24 bytes).
    Removing iwdg.o(.rev16_text), (4 bytes).
    Removing iwdg.o(.revsh_text), (4 bytes).
    Removing iwdg.o(i.IWDG_Feed), (8 bytes).
    Removing iwdg.o(i.IWDG_Init), (36 bytes).
    Removing eeprom.o(.rev16_text), (4 bytes).
    Removing eeprom.o(.revsh_text), (4 bytes).
    Removing eeprom.o(i.EEPROM_Init), (8 bytes).
    Removing eeprom.o(i.EEPROM_Read), (34 bytes).
    Removing eeprom.o(i.EEPROM_ReadLenByte), (44 bytes).
    Removing eeprom.o(i.EEPROM_WriteLenByte), (42 bytes).
    Removing encryptid.o(.rev16_text), (4 bytes).
    Removing encryptid.o(.revsh_text), (4 bytes).
    Removing encryptid.o(.data), (16 bytes).
    Removing dataproc.o(i.SetGNSSData), (36 bytes).
    Removing basicfunc.o(i.AddMxM), (432 bytes).
    Removing basicfunc.o(i.CM2Quat), (724 bytes).
    Removing basicfunc.o(i.GetBitNum), (46 bytes).
    Removing basicfunc.o(i.GetGpsTime), (224 bytes).
    Removing basicfunc.o(i.GetNextSvid), (80 bytes).
    Removing basicfunc.o(.data), (52 bytes).
    Removing gifilter.o(i.GIKFUpdateByNHC), (1288 bytes).
    Removing gifilter.o(i.GIKFUpdateByOli), (6 bytes).
    Removing gifilter.o(i.GIKFUpdateByRMC), (1740 bytes).
    Removing gifilter.o(i.GIKFUpdateByStatic), (964 bytes).
    Removing insnav.o(i.ChangeCoord), (1000 bytes).
    Removing insnav.o(i.JudgeAngle), (116 bytes).
    Removing dneg.o(.text), (6 bytes).

408 unused section(s) (total 22948 bytes) removed from the image.

==============================================================================

Image Symbol Table

    Local Symbols

    Symbol Name                              Value     Ov Type        Size  Object(Section)

    ../clib/../cmprslib/zerorunl2.c          0x00000000   Number         0  __dczerorl2.o ABSOLUTE
    ../clib/microlib/ctype/ctype.c           0x00000000   Number         0  islower_o.o ABSOLUTE
    ../clib/microlib/ctype/ctype.c           0x00000000   Number         0  isdigit_o.o ABSOLUTE
    ../clib/microlib/ctype/ctype.c           0x00000000   Number         0  isalnum_o.o ABSOLUTE
    ../clib/microlib/ctype/ctype.c           0x00000000   Number         0  ctype_c.o ABSOLUTE
    ../clib/microlib/ctype/ctype.c           0x00000000   Number         0  ctype_o.o ABSOLUTE
    ../clib/microlib/ctype/ctype.c           0x00000000   Number         0  isgraph_o.o ABSOLUTE
    ../clib/microlib/ctype/ctype.c           0x00000000   Number         0  isspace_c.o ABSOLUTE
    ../clib/microlib/ctype/ctype.c           0x00000000   Number         0  isxdigit_o.o ABSOLUTE
    ../clib/microlib/ctype/ctype.c           0x00000000   Number         0  isupper_o.o ABSOLUTE
    ../clib/microlib/ctype/ctype.c           0x00000000   Number         0  iscntrl_o.o ABSOLUTE
    ../clib/microlib/ctype/ctype.c           0x00000000   Number         0  isblank_o.o ABSOLUTE
    ../clib/microlib/ctype/ctype.c           0x00000000   Number         0  isalpha_o.o ABSOLUTE
    ../clib/microlib/ctype/ctype.c           0x00000000   Number         0  isspace_o.o ABSOLUTE
    ../clib/microlib/ctype/ctype.c           0x00000000   Number         0  ispunct_o.o ABSOLUTE
    ../clib/microlib/ctype/ctype.c           0x00000000   Number         0  isprint_o.o ABSOLUTE
    ../clib/microlib/division.c              0x00000000   Number         0  uldiv.o ABSOLUTE
    ../clib/microlib/errno.c                 0x00000000   Number         0  errno.o ABSOLUTE
    ../clib/microlib/init/entry.s            0x00000000   Number         0  entry5.o ABSOLUTE
    ../clib/microlib/init/entry.s            0x00000000   Number         0  entry10b.o ABSOLUTE
    ../clib/microlib/init/entry.s            0x00000000   Number         0  entry11a.o ABSOLUTE
    ../clib/microlib/init/entry.s            0x00000000   Number         0  entry7b.o ABSOLUTE
    ../clib/microlib/init/entry.s            0x00000000   Number         0  entry9a.o ABSOLUTE
    ../clib/microlib/init/entry.s            0x00000000   Number         0  entry7a.o ABSOLUTE
    ../clib/microlib/init/entry.s            0x00000000   Number         0  entry8a.o ABSOLUTE
    ../clib/microlib/init/entry.s            0x00000000   Number         0  entry2.o ABSOLUTE
    ../clib/microlib/init/entry.s            0x00000000   Number         0  entry9b.o ABSOLUTE
    ../clib/microlib/init/entry.s            0x00000000   Number         0  entry10a.o ABSOLUTE
    ../clib/microlib/init/entry.s            0x00000000   Number         0  entry.o ABSOLUTE
    ../clib/microlib/init/entry.s            0x00000000   Number         0  entry11b.o ABSOLUTE
    ../clib/microlib/init/entry.s            0x00000000   Number         0  entry8b.o ABSOLUTE
    ../clib/microlib/longlong.c              0x00000000   Number         0  llsshr.o ABSOLUTE
    ../clib/microlib/longlong.c              0x00000000   Number         0  llushr.o ABSOLUTE
    ../clib/microlib/longlong.c              0x00000000   Number         0  llshl.o ABSOLUTE
    ../clib/microlib/malloc/malloc.c         0x00000000   Number         0  mallocra.o ABSOLUTE
    ../clib/microlib/malloc/malloc.c         0x00000000   Number         0  malloca.o ABSOLUTE
    ../clib/microlib/malloc/malloc.c         0x00000000   Number         0  mallocr.o ABSOLUTE
    ../clib/microlib/malloc/malloc.c         0x00000000   Number         0  malloc.o ABSOLUTE
    ../clib/microlib/malloc/mvars.c          0x00000000   Number         0  mvars.o ABSOLUTE
    ../clib/microlib/stdlib/rand.c           0x00000000   Number         0  rand.o ABSOLUTE
    ../clib/microlib/string/memcpy.c         0x00000000   Number         0  memcpyb.o ABSOLUTE
    ../clib/microlib/string/memcpy.c         0x00000000   Number         0  memcpya.o ABSOLUTE
    ../clib/microlib/string/memset.c         0x00000000   Number         0  memseta.o ABSOLUTE
    ../clib/microlib/string/strcmp.c         0x00000000   Number         0  strcmp.o ABSOLUTE
    ../clib/microlib/stubs.s                 0x00000000   Number         0  iusefp.o ABSOLUTE
    ../clib/scanf.c                          0x00000000   Number         0  strtol.o ABSOLUTE
    ../clib/scanf.c                          0x00000000   Number         0  atoi.o ABSOLUTE
    ../clib/scanf.c                          0x00000000   Number         0  strtod.o ABSOLUTE
    ../clib/scanf.c                          0x00000000   Number         0  scanf_fp.o ABSOLUTE
    ../clib/scanf.c                          0x00000000   Number         0  _sgetc.o ABSOLUTE
    ../clib/scanf.c                          0x00000000   Number         0  _strtoul.o ABSOLUTE
    ../clib/scanf.c                          0x00000000   Number         0  _chval.o ABSOLUTE
    ../fplib/microlib/d2f.c                  0x00000000   Number         0  d2f.o ABSOLUTE
    ../fplib/microlib/f2d.c                  0x00000000   Number         0  f2d.o ABSOLUTE
    ../fplib/microlib/fpadd.c                0x00000000   Number         0  dadd.o ABSOLUTE
    ../fplib/microlib/fpdiv.c                0x00000000   Number         0  ddiv.o ABSOLUTE
    ../fplib/microlib/fpepilogue.c           0x00000000   Number         0  fepilogue.o ABSOLUTE
    ../fplib/microlib/fpepilogue.c           0x00000000   Number         0  depilogue.o ABSOLUTE
    ../fplib/microlib/fpfix.c                0x00000000   Number         0  dfixui.o ABSOLUTE
    ../fplib/microlib/fpfix.c                0x00000000   Number         0  dfixul.o ABSOLUTE
    ../fplib/microlib/fpfix.c                0x00000000   Number         0  dfixi.o ABSOLUTE
    ../fplib/microlib/fpflt.c                0x00000000   Number         0  dfltui.o ABSOLUTE
    ../fplib/microlib/fpflt.c                0x00000000   Number         0  dflti.o ABSOLUTE
    ../fplib/microlib/fpflt.c                0x00000000   Number         0  dfltul.o ABSOLUTE
    ../fplib/microlib/fpmul.c                0x00000000   Number         0  dmul.o ABSOLUTE
    ../fplib/microlib/fpneg.c                0x00000000   Number         0  dneg.o ABSOLUTE
    ../fplib/microlib/fpsqrt.c               0x00000000   Number         0  dsqrt.o ABSOLUTE
    ../mathlib/asin.c                        0x00000000   Number         0  asin_x.o ABSOLUTE
    ../mathlib/asin.c                        0x00000000   Number         0  asin.o ABSOLUTE
    ../mathlib/atan.c                        0x00000000   Number         0  atan.o ABSOLUTE
    ../mathlib/atan.c                        0x00000000   Number         0  atan_x.o ABSOLUTE
    ../mathlib/atan2.c                       0x00000000   Number         0  atan2.o ABSOLUTE
    ../mathlib/atan2.c                       0x00000000   Number         0  atan2_x.o ABSOLUTE
    ../mathlib/atof.c                        0x00000000   Number         0  atof.o ABSOLUTE
    ../mathlib/cos.c                         0x00000000   Number         0  cos.o ABSOLUTE
    ../mathlib/cos.c                         0x00000000   Number         0  cos_x.o ABSOLUTE
    ../mathlib/cos_i.c                       0x00000000   Number         0  cos_i.o ABSOLUTE
    ../mathlib/dunder.c                      0x00000000   Number         0  dunder.o ABSOLUTE
    ../mathlib/fabs.c                        0x00000000   Number         0  fabs.o ABSOLUTE
    ../mathlib/fpclassify.c                  0x00000000   Number         0  fpclassify.o ABSOLUTE
    ../mathlib/poly.c                        0x00000000   Number         0  poly.o ABSOLUTE
    ../mathlib/qnan.c                        0x00000000   Number         0  qnan.o ABSOLUTE
    ../mathlib/rred.c                        0x00000000   Number         0  rred.o ABSOLUTE
    ../mathlib/sin.c                         0x00000000   Number         0  sin.o ABSOLUTE
    ../mathlib/sin.c                         0x00000000   Number         0  sin_x.o ABSOLUTE
    ../mathlib/sin_i.c                       0x00000000   Number         0  sin_i_x.o ABSOLUTE
    ../mathlib/sin_i.c                       0x00000000   Number         0  sin_i.o ABSOLUTE
    ../mathlib/sqrt.c                        0x00000000   Number         0  sqrt.o ABSOLUTE
    ../mathlib/sqrt.c                        0x00000000   Number         0  sqrt_x.o ABSOLUTE
    ..\Core\startup_stm32f401xx.s            0x00000000   Number         0  startup_stm32f401xx.o ABSOLUTE
    ..\Fwlib\src\misc.c                      0x00000000   Number         0  misc.o ABSOLUTE
    ..\Fwlib\src\stm32f4xx_dma.c             0x00000000   Number         0  stm32f4xx_dma.o ABSOLUTE
    ..\Fwlib\src\stm32f4xx_exti.c            0x00000000   Number         0  stm32f4xx_exti.o ABSOLUTE
    ..\Fwlib\src\stm32f4xx_flash.c           0x00000000   Number         0  stm32f4xx_flash.o ABSOLUTE
    ..\Fwlib\src\stm32f4xx_gpio.c            0x00000000   Number         0  stm32f4xx_gpio.o ABSOLUTE
    ..\Fwlib\src\stm32f4xx_i2c.c             0x00000000   Number         0  stm32f4xx_i2c.o ABSOLUTE
    ..\Fwlib\src\stm32f4xx_iwdg.c            0x00000000   Number         0  stm32f4xx_iwdg.o ABSOLUTE
    ..\Fwlib\src\stm32f4xx_pwr.c             0x00000000   Number         0  stm32f4xx_pwr.o ABSOLUTE
    ..\Fwlib\src\stm32f4xx_rcc.c             0x00000000   Number         0  stm32f4xx_rcc.o ABSOLUTE
    ..\Fwlib\src\stm32f4xx_spi.c             0x00000000   Number         0  stm32f4xx_spi.o ABSOLUTE
    ..\Fwlib\src\stm32f4xx_syscfg.c          0x00000000   Number         0  stm32f4xx_syscfg.o ABSOLUTE
    ..\Fwlib\src\stm32f4xx_tim.c             0x00000000   Number         0  stm32f4xx_tim.o ABSOLUTE
    ..\Fwlib\src\stm32f4xx_usart.c           0x00000000   Number         0  stm32f4xx_usart.o ABSOLUTE
    ..\GINavSolution\BasicFunc.c             0x00000000   Number         0  basicfunc.o ABSOLUTE
    ..\GINavSolution\DataProc.c              0x00000000   Number         0  dataproc.o ABSOLUTE
    ..\GINavSolution\GIFilter.c              0x00000000   Number         0  gifilter.o ABSOLUTE
    ..\GINavSolution\GINavMain.c             0x00000000   Number         0  ginavmain.o ABSOLUTE
    ..\GINavSolution\GlobalVars.c            0x00000000   Number         0  globalvars.o ABSOLUTE
    ..\GINavSolution\Gnss.c                  0x00000000   Number         0  gnss.o ABSOLUTE
    ..\GINavSolution\InsAlign.c              0x00000000   Number         0  insalign.o ABSOLUTE
    ..\GINavSolution\InsNav.c                0x00000000   Number         0  insnav.o ABSOLUTE
    ..\\Fwlib\\src\\misc.c                   0x00000000   Number         0  misc.o ABSOLUTE
    ..\\Fwlib\\src\\stm32f4xx_dma.c          0x00000000   Number         0  stm32f4xx_dma.o ABSOLUTE
    ..\\Fwlib\\src\\stm32f4xx_exti.c         0x00000000   Number         0  stm32f4xx_exti.o ABSOLUTE
    ..\\Fwlib\\src\\stm32f4xx_flash.c        0x00000000   Number         0  stm32f4xx_flash.o ABSOLUTE
    ..\\Fwlib\\src\\stm32f4xx_gpio.c         0x00000000   Number         0  stm32f4xx_gpio.o ABSOLUTE
    ..\\Fwlib\\src\\stm32f4xx_i2c.c          0x00000000   Number         0  stm32f4xx_i2c.o ABSOLUTE
    ..\\Fwlib\\src\\stm32f4xx_iwdg.c         0x00000000   Number         0  stm32f4xx_iwdg.o ABSOLUTE
    ..\\Fwlib\\src\\stm32f4xx_pwr.c          0x00000000   Number         0  stm32f4xx_pwr.o ABSOLUTE
    ..\\Fwlib\\src\\stm32f4xx_rcc.c          0x00000000   Number         0  stm32f4xx_rcc.o ABSOLUTE
    ..\\Fwlib\\src\\stm32f4xx_spi.c          0x00000000   Number         0  stm32f4xx_spi.o ABSOLUTE
    ..\\Fwlib\\src\\stm32f4xx_syscfg.c       0x00000000   Number         0  stm32f4xx_syscfg.o ABSOLUTE
    ..\\Fwlib\\src\\stm32f4xx_tim.c          0x00000000   Number         0  stm32f4xx_tim.o ABSOLUTE
    ..\\Fwlib\\src\\stm32f4xx_usart.c        0x00000000   Number         0  stm32f4xx_usart.o ABSOLUTE
    24cxx.c                                  0x00000000   Number         0  24cxx.o ABSOLUTE
    24cxx.c                                  0x00000000   Number         0  24cxx.o ABSOLUTE
    ALPU-C-0FF.c                             0x00000000   Number         0  alpu-c-0ff.o ABSOLUTE
    CommData.c                               0x00000000   Number         0  commdata.o ABSOLUTE
    CommData.c                               0x00000000   Number         0  commdata.o ABSOLUTE
    Delay.c                                  0x00000000   Number         0  delay.o ABSOLUTE
    Delay.c                                  0x00000000   Number         0  delay.o ABSOLUTE
    EEPROM.c                                 0x00000000   Number         0  eeprom.o ABSOLUTE
    EEPROM.c                                 0x00000000   Number         0  eeprom.o ABSOLUTE
    EncryptID.c                              0x00000000   Number         0  encryptid.o ABSOLUTE
    EncryptID.c                              0x00000000   Number         0  encryptid.o ABSOLUTE
    GetAcc.c                                 0x00000000   Number         0  getacc.o ABSOLUTE
    GetAcc.c                                 0x00000000   Number         0  getacc.o ABSOLUTE
    GetGPS.c                                 0x00000000   Number         0  getgps.o ABSOLUTE
    GetGPS.c                                 0x00000000   Number         0  getgps.o ABSOLUTE
    GetGyr.c                                 0x00000000   Number         0  getgyr.o ABSOLUTE
    GetGyr.c                                 0x00000000   Number         0  getgyr.o ABSOLUTE
    GetIMU.c                                 0x00000000   Number         0  getimu.o ABSOLUTE
    GetIMU.c                                 0x00000000   Number         0  getimu.o ABSOLUTE
    GetNass.c                                0x00000000   Number         0  getnass.o ABSOLUTE
    GetNass.c                                0x00000000   Number         0  getnass.o ABSOLUTE
    SendGps.c                                0x00000000   Number         0  sendgps.o ABSOLUTE
    SendGps.c                                0x00000000   Number         0  sendgps.o ABSOLUTE
    cdcmple.s                                0x00000000   Number         0  cdcmple.o ABSOLUTE
    cdrcmple.s                               0x00000000   Number         0  cdrcmple.o ABSOLUTE
    dc.s                                     0x00000000   Number         0  dc.o ABSOLUTE
    handlers.s                               0x00000000   Number         0  handlers.o ABSOLUTE
    hw_config.c                              0x00000000   Number         0  hw_config.o ABSOLUTE
    hw_config.c                              0x00000000   Number         0  hw_config.o ABSOLUTE
    init.s                                   0x00000000   Number         0  init.o ABSOLUTE
    iwdg.c                                   0x00000000   Number         0  iwdg.o ABSOLUTE
    iwdg.c                                   0x00000000   Number         0  iwdg.o ABSOLUTE
    main.c                                   0x00000000   Number         0  main.o ABSOLUTE
    main.c                                   0x00000000   Number         0  main.o ABSOLUTE
    myiic.c                                  0x00000000   Number         0  myiic.o ABSOLUTE
    myiic.c                                  0x00000000   Number         0  myiic.o ABSOLUTE
    spi.c                                    0x00000000   Number         0  spi.o ABSOLUTE
    spi.c                                    0x00000000   Number         0  spi.o ABSOLUTE
    stm32f4xx_it.c                           0x00000000   Number         0  stm32f4xx_it.o ABSOLUTE
    stm32f4xx_it.c                           0x00000000   Number         0  stm32f4xx_it.o ABSOLUTE
    stmflash.c                               0x00000000   Number         0  stmflash.o ABSOLUTE
    stmflash.c                               0x00000000   Number         0  stmflash.o ABSOLUTE
    system_stm32f4xx.c                       0x00000000   Number         0  system_stm32f4xx.o ABSOLUTE
    system_stm32f4xx.c                       0x00000000   Number         0  system_stm32f4xx.o ABSOLUTE
    RESET                                    0x08010000   Section      404  startup_stm32f401xx.o(RESET)
    .ARM.Collect$$$$00000000                 0x08010194   Section        0  entry.o(.ARM.Collect$$$$00000000)
    .ARM.Collect$$$$00000001                 0x08010194   Section        4  entry2.o(.ARM.Collect$$$$00000001)
    .ARM.Collect$$$$00000004                 0x08010198   Section        4  entry5.o(.ARM.Collect$$$$00000004)
    .ARM.Collect$$$$00000008                 0x0801019c   Section        0  entry7b.o(.ARM.Collect$$$$00000008)
    .ARM.Collect$$$$0000000A                 0x0801019c   Section        0  entry8b.o(.ARM.Collect$$$$0000000A)
    .ARM.Collect$$$$0000000B                 0x0801019c   Section        8  entry9a.o(.ARM.Collect$$$$0000000B)
    .ARM.Collect$$$$0000000D                 0x080101a4   Section        0  entry10a.o(.ARM.Collect$$$$0000000D)
    .ARM.Collect$$$$0000000F                 0x080101a4   Section        0  entry11a.o(.ARM.Collect$$$$0000000F)
    .ARM.Collect$$$$00002712                 0x080101a4   Section        4  entry2.o(.ARM.Collect$$$$00002712)
    __lit__00000000                          0x080101a4   Data           4  entry2.o(.ARM.Collect$$$$00002712)
    .text                                    0x080101a8   Section       36  startup_stm32f401xx.o(.text)
    $v0                                      0x080101a8   Number         0  startup_stm32f401xx.o(.text)
    .text                                    0x080101cc   Section        0  alpu-c-0ff.o(.text)
    .text                                    0x08010880   Section        0  uldiv.o(.text)
    .text                                    0x080108e4   Section        0  rand.o(.text)
    .text                                    0x08010908   Section        0  memcpya.o(.text)
    .text                                    0x0801092c   Section        0  memseta.o(.text)
    .text                                    0x08010950   Section        0  strcmp.o(.text)
    .text                                    0x0801096c   Section        0  atoi.o(.text)
    .text                                    0x08010986   Section        0  dadd.o(.text)
    .text                                    0x08010ad4   Section        0  dmul.o(.text)
    .text                                    0x08010bb8   Section        0  ddiv.o(.text)
    .text                                    0x08010c96   Section        0  dflti.o(.text)
    .text                                    0x08010cb8   Section        0  dfltui.o(.text)
    .text                                    0x08010cd2   Section        0  dfixi.o(.text)
    .text                                    0x08010d10   Section        0  dfixui.o(.text)
    .text                                    0x08010d42   Section        0  dfixul.o(.text)
    .text                                    0x08010d72   Section        0  f2d.o(.text)
    .text                                    0x08010d98   Section       48  cdcmple.o(.text)
    .text                                    0x08010dc8   Section       48  cdrcmple.o(.text)
    .text                                    0x08010df8   Section        0  d2f.o(.text)
    .text                                    0x08010e30   Section        0  llshl.o(.text)
    .text                                    0x08010e4e   Section        0  llushr.o(.text)
    .text                                    0x08010e6e   Section        0  llsshr.o(.text)
    .text                                    0x08010e94   Section        0  strtod.o(.text)
    _local_sscanf                            0x08010e95   Thumb Code    54  strtod.o(.text)
    .text                                    0x08010f30   Section        0  strtol.o(.text)
    .text                                    0x08010fa0   Section        0  iusefp.o(.text)
    .text                                    0x08010fa0   Section        0  fepilogue.o(.text)
    .text                                    0x0801100e   Section        0  depilogue.o(.text)
    .text                                    0x080110c8   Section        0  dsqrt.o(.text)
    .text                                    0x0801116c   Section       36  init.o(.text)
    .text                                    0x08011190   Section        0  ctype_o.o(.text)
    .text                                    0x08011198   Section        0  isspace_o.o(.text)
    .text                                    0x080111ac   Section        0  scanf_fp.o(.text)
    _fp_value                                0x080111ad   Thumb Code   256  scanf_fp.o(.text)
    .text                                    0x080114e4   Section        0  _sgetc.o(.text)
    .text                                    0x08011524   Section        0  _strtoul.o(.text)
    .text                                    0x080115c2   Section        0  _chval.o(.text)
    .text                                    0x080115de   Section        0  dfltul.o(.text)
    .text                                    0x080115f6   Section        0  __dczerorl2.o(.text)
    i.Acc_Ini                                0x0801164c   Section        0  getacc.o(i.Acc_Ini)
    i.AddMtxMt                               0x080116ec   Section        0  basicfunc.o(i.AddMtxMt)
    i.AddMxMt                                0x0801189c   Section        0  basicfunc.o(i.AddMxMt)
    i.AddMxMtxMt                             0x08011a4c   Section        0  basicfunc.o(i.AddMxMtxMt)
    i.AddMxMxMt                              0x08011cb0   Section        0  basicfunc.o(i.AddMxMxMt)
    i.Addequal                               0x08011f14   Section        0  basicfunc.o(i.Addequal)
    i.Analyse_GpsData                        0x08012038   Section        0  getnass.o(i.Analyse_GpsData)
    i.ApluCode                               0x0801287c   Section        0  main.o(i.ApluCode)
    i.BMI160_Ini                             0x080128ec   Section        0  getacc.o(i.BMI160_Ini)
    i.Buftodouble                            0x08012a20   Section        0  stmflash.o(i.Buftodouble)
    i.CM2Euler                               0x08012a54   Section        0  basicfunc.o(i.CM2Euler)
    i.CMRotation                             0x08012bd0   Section        0  basicfunc.o(i.CMRotation)
    i.ChangeGstDeta                          0x08012d94   Section        0  gifilter.o(i.ChangeGstDeta)
    i.Change_SensorData                      0x08012fa0   Section        0  getimu.o(i.Change_SensorData)
    i.Change_Time                            0x08013070   Section        0  getimu.o(i.Change_Time)
    i.Check_Lock_Code                        0x080130e4   Section        0  encryptid.o(i.Check_Lock_Code)
    i.Checkout_2Pi                           0x0801318c   Section        0  getacc.o(i.Checkout_2Pi)
    i.Checkout_PGyr                          0x080131ec   Section        0  getgyr.o(i.Checkout_PGyr)
    i.Checkout_Pi                            0x08013228   Section        0  getacc.o(i.Checkout_Pi)
    i.Checkout_RGyr                          0x08013268   Section        0  getgyr.o(i.Checkout_RGyr)
    i.Checkout_YGyr                          0x080132a4   Section        0  getgyr.o(i.Checkout_YGyr)
    i.Checkout_a2g                           0x080132e0   Section        0  getacc.o(i.Checkout_a2g)
    i.Checkout_p2g                           0x08013318   Section        0  getacc.o(i.Checkout_p2g)
    i.Checkout_r2g                           0x08013350   Section        0  getacc.o(i.Checkout_r2g)
    i.Com2SendData                           0x08013388   Section        0  commdata.o(i.Com2SendData)
    i.Command_Handle                         0x080133d0   Section        0  commdata.o(i.Command_Handle)
    i.ConfirmHeading                         0x080136cc   Section        0  insalign.o(i.ConfirmHeading)
    i.Convert_Acc_Data                       0x080139a8   Section        0  getacc.o(i.Convert_Acc_Data)
    i.ConvertorGyrData                       0x080139cc   Section        0  getgyr.o(i.ConvertorGyrData)
    i.ConvertorPAcc                          0x08013a28   Section        0  getacc.o(i.ConvertorPAcc)
    i.ConvertorPAngle                        0x08013a94   Section        0  getacc.o(i.ConvertorPAngle)
    i.ConvertorRAcc                          0x08013b0c   Section        0  getacc.o(i.ConvertorRAcc)
    i.ConvertorRAngle                        0x08013b84   Section        0  getacc.o(i.ConvertorRAngle)
    i.ConvertorZAcc                          0x08013c48   Section        0  getacc.o(i.ConvertorZAcc)
    i.CoordChangeA                           0x08013cc0   Section        0  getacc.o(i.CoordChangeA)
    i.CoordChangeG                           0x08013ec8   Section        0  getgyr.o(i.CoordChangeG)
    i.DMA2_Stream7_IRQHandler                0x080140d0   Section        0  stm32f4xx_it.o(i.DMA2_Stream7_IRQHandler)
    i.DMA_ClearFlag                          0x080140fc   Section        0  stm32f4xx_dma.o(i.DMA_ClearFlag)
    i.DMA_Cmd                                0x08014130   Section        0  stm32f4xx_dma.o(i.DMA_Cmd)
    i.DMA_DeInit                             0x08014148   Section        0  stm32f4xx_dma.o(i.DMA_DeInit)
    i.DMA_Finish                             0x080142a0   Section        0  stm32f4xx_it.o(i.DMA_Finish)
    i.DMA_GetCmdStatus                       0x0801431c   Section        0  stm32f4xx_dma.o(i.DMA_GetCmdStatus)
    i.DMA_GetFlagStatus                      0x08014330   Section        0  stm32f4xx_dma.o(i.DMA_GetFlagStatus)
    i.DMA_ITConfig                           0x08014374   Section        0  stm32f4xx_dma.o(i.DMA_ITConfig)
    i.DMA_Init                               0x080143b0   Section        0  stm32f4xx_dma.o(i.DMA_Init)
    i.DataJudge                              0x08014408   Section        0  getgps.o(i.DataJudge)
    i.DataProcerInit                         0x08014440   Section        0  dataproc.o(i.DataProcerInit)
    i.Data_Flash_Decode                      0x08014470   Section        0  stmflash.o(i.Data_Flash_Decode)
    i.Data_Flash_Save                        0x0801448c   Section        0  stmflash.o(i.Data_Flash_Save)
    i.Data_Ini                               0x0801451c   Section        0  main.o(i.Data_Ini)
    i.Data_Synch                             0x08014688   Section        0  getimu.o(i.Data_Synch)
    i.DynamicModeIdentify                    0x080146d0   Section        0  insnav.o(i.DynamicModeIdentify)
    i.EEPROM_Check                           0x08014c30   Section        0  eeprom.o(i.EEPROM_Check)
    i.EEPROM_ReadOneByte                     0x08014c64   Section        0  eeprom.o(i.EEPROM_ReadOneByte)
    i.EEPROM_Write                           0x08014cc0   Section        0  eeprom.o(i.EEPROM_Write)
    i.EEPROM_WriteOneByte                    0x08014ce4   Section        0  eeprom.o(i.EEPROM_WriteOneByte)
    i.EXTI0_IRQHandler                       0x08014d38   Section        0  stm32f4xx_it.o(i.EXTI0_IRQHandler)
    i.EXTI15_10_IRQHandler                   0x08014d78   Section        0  stm32f4xx_it.o(i.EXTI15_10_IRQHandler)
    i.EXTIX_Init                             0x08014d9e   Section        0  hw_config.o(i.EXTIX_Init)
    i.EXTI_ClearITPendingBit                 0x08014dc8   Section        0  stm32f4xx_exti.o(i.EXTI_ClearITPendingBit)
    i.EXTI_GetITStatus                       0x08014dd4   Section        0  stm32f4xx_exti.o(i.EXTI_GetITStatus)
    i.EXTI_Init                              0x08014dec   Section        0  stm32f4xx_exti.o(i.EXTI_Init)
    i.Euler2Quat                             0x08014e80   Section        0  basicfunc.o(i.Euler2Quat)
    i.FLASH_DataCacheCmd                     0x08015104   Section        0  stm32f4xx_flash.o(i.FLASH_DataCacheCmd)
    i.FLASH_EraseSector                      0x08015128   Section        0  stm32f4xx_flash.o(i.FLASH_EraseSector)
    i.FLASH_GetStatus                        0x080151b0   Section        0  stm32f4xx_flash.o(i.FLASH_GetStatus)
    i.FLASH_Lock                             0x08015204   Section        0  stm32f4xx_flash.o(i.FLASH_Lock)
    i.FLASH_ProgramWord                      0x08015218   Section        0  stm32f4xx_flash.o(i.FLASH_ProgramWord)
    i.FLASH_Unlock                           0x08015268   Section        0  stm32f4xx_flash.o(i.FLASH_Unlock)
    i.FLASH_WaitForLastOperation             0x0801528c   Section        0  stm32f4xx_flash.o(i.FLASH_WaitForLastOperation)
    i.Flag_Clear                             0x080152b0   Section        0  getgps.o(i.Flag_Clear)
    i.GIKFBatchSolution                      0x0801530c   Section        0  gifilter.o(i.GIKFBatchSolution)
    i.GIKFCalcPHIMatrix                      0x080159f0   Section        0  gifilter.o(i.GIKFCalcPHIMatrix)
    i.GIKFCheckGIResult                      0x08016054   Section        0  gifilter.o(i.GIKFCheckGIResult)
    i.GIKFCheckPMatrix                       0x080164f0   Section        0  gifilter.o(i.GIKFCheckPMatrix)
    i.GIKFINSErrorFix                        0x080168c4   Section        0  gifilter.o(i.GIKFINSErrorFix)
    i.GIKFInit                               0x08016f30   Section        0  gifilter.o(i.GIKFInit)
    i.GIKFInitPMatrix                        0x08016fb0   Section        0  gifilter.o(i.GIKFInitPMatrix)
    i.GIKFModularizePMatrix                  0x08017044   Section        0  gifilter.o(i.GIKFModularizePMatrix)
    i.GIKFPredictPMatrix                     0x0801709c   Section        0  gifilter.o(i.GIKFPredictPMatrix)
    i.GIKFUpdateByGNSS                       0x08017884   Section        0  gifilter.o(i.GIKFUpdateByGNSS)
    i.GINavInit                              0x08017eb0   Section        0  ginavmain.o(i.GINavInit)
    i.GINavProc                              0x08018354   Section        0  ginavmain.o(i.GINavProc)
    i.GPIO_Configuration                     0x08018ea8   Section        0  hw_config.o(i.GPIO_Configuration)
    i.GPIO_Init                              0x08019054   Section        0  stm32f4xx_gpio.o(i.GPIO_Init)
    i.GPIO_PinAFConfig                       0x080190e4   Section        0  stm32f4xx_gpio.o(i.GPIO_PinAFConfig)
    i.GPIO_ResetBits                         0x0801912a   Section        0  stm32f4xx_gpio.o(i.GPIO_ResetBits)
    i.GPIO_SetBits                           0x0801912e   Section        0  stm32f4xx_gpio.o(i.GPIO_SetBits)
    i.GPS_Rate_Config                        0x08019134   Section        0  getgps.o(i.GPS_Rate_Config)
    i.GetAngle                               0x08019158   Section        0  sendgps.o(i.GetAngle)
    i.GetAngleDis                            0x08019870   Section        0  sendgps.o(i.GetAngleDis)
    i.GetCrcData                             0x08019ef0   Section        0  commdata.o(i.GetCrcData)
    i.GetDiffAgeData                         0x08019f50   Section        0  getnass.o(i.GetDiffAgeData)
    i.GetField                               0x08019ff4   Section        0  getgps.o(i.GetField)
    i.GetGNSSData                            0x0801a084   Section        0  dataproc.o(i.GetGNSSData)
    i.GetGPRMC                               0x0801a0a0   Section        0  sendgps.o(i.GetGPRMC)
    i.GetGPVTG                               0x0801aa04   Section        0  sendgps.o(i.GetGPVTG)
    i.GetGPZDA                               0x0801b094   Section        0  sendgps.o(i.GetGPZDA)
    i.GetIMUData                             0x0801b448   Section        0  dataproc.o(i.GetIMUData)
    i.GetLGPGGA                              0x0801b464   Section        0  sendgps.o(i.GetLGPGGA)
    i.GetLocalGravity                        0x0801bedc   Section        0  basicfunc.o(i.GetLocalGravity)
    i.GetNavFrameQuat                        0x0801c028   Section        0  basicfunc.o(i.GetNavFrameQuat)
    i.GetQMatrix                             0x0801c180   Section        0  gifilter.o(i.GetQMatrix)
    i.GetRMCData                             0x0801c204   Section        0  sendgps.o(i.GetRMCData)
    i.GetUTCTime                             0x0801c260   Section        0  getimu.o(i.GetUTCTime)
    i.Get_Acc_XYZ                            0x0801c2e8   Section        0  getacc.o(i.Get_Acc_XYZ)
    i.Get_Angle_XYZ                          0x0801c424   Section        0  getacc.o(i.Get_Angle_XYZ)
    i.Get_BMI055_Data                        0x0801c4dc   Section        0  getimu.o(i.Get_BMI055_Data)
    i.Get_BMI160A_Data                       0x0801c570   Section        0  getacc.o(i.Get_BMI160A_Data)
    i.Get_BMI160G_Data                       0x0801c5e8   Section        0  getgyr.o(i.Get_BMI160G_Data)
    i.Get_GGA_RMC_GST                        0x0801c658   Section        0  getgps.o(i.Get_GGA_RMC_GST)
    i.Get_GSA_GAV                            0x0801c9f8   Section        0  getgps.o(i.Get_GSA_GAV)
    i.Get_RMC_Data                           0x0801cabc   Section        0  getgps.o(i.Get_RMC_Data)
    i.Get_Rate_Data                          0x0801cb74   Section        0  getgyr.o(i.Get_Rate_Data)
    i.Get_Yaw_Data                           0x0801cc70   Section        0  getgyr.o(i.Get_Yaw_Data)
    i.GnssEvaluation                         0x0801cd1c   Section        0  gnss.o(i.GnssEvaluation)
    i.GpsBautConfig                          0x0801dfe8   Section        0  getgps.o(i.GpsBautConfig)
    i.GpsConfig2                             0x0801e018   Section        0  getgps.o(i.GpsConfig2)
    i.GpsGLOpen                              0x0801e6f8   Section        0  getgps.o(i.GpsGLOpen)
    i.GpsGsvClose                            0x0801e7e0   Section        0  getgps.o(i.GpsGsvClose)
    i.GpsGsvOpen                             0x0801e930   Section        0  getgps.o(i.GpsGsvOpen)
    i.Gps_Receive_Handle                     0x0801ea80   Section        0  getgps.o(i.Gps_Receive_Handle)
    i.Gyr_Ini                                0x0801eb38   Section        0  getgyr.o(i.Gyr_Ini)
    i.HandleCompensate                       0x0801eb70   Section        0  insnav.o(i.HandleCompensate)
    i.HandleGGAOn                            0x0801ec80   Section        0  getgps.o(i.HandleGGAOn)
    i.HandleGpsData                          0x0801ef20   Section        0  getgps.o(i.HandleGpsData)
    i.HandleGpsIni                           0x0801ef38   Section        0  getgps.o(i.HandleGpsIni)
    i.HandleKeyOn                            0x0801ef68   Section        0  commdata.o(i.HandleKeyOn)
    i.HandlePassOn                           0x0801fec0   Section        0  commdata.o(i.HandlePassOn)
    i.HandleUpdata                           0x0801ffb0   Section        0  commdata.o(i.HandleUpdata)
    i.HandleUserData                         0x08020070   Section        0  commdata.o(i.HandleUserData)
    i.Handle_Ini                             0x080200d8   Section        0  stm32f4xx_it.o(i.Handle_Ini)
    i.I2C_Configuration                      0x08020160   Section        0  hw_config.o(i.I2C_Configuration)
    i.IIC_Ack                                0x08020168   Section        0  myiic.o(i.IIC_Ack)
    i.IIC_Init                               0x080201bc   Section        0  myiic.o(i.IIC_Init)
    i.IIC_NAck                               0x0802022c   Section        0  myiic.o(i.IIC_NAck)
    i.IIC_Read_Byte                          0x08020280   Section        0  myiic.o(i.IIC_Read_Byte)
    i.IIC_Send_Byte                          0x080202ec   Section        0  myiic.o(i.IIC_Send_Byte)
    i.IIC_Start                              0x08020354   Section        0  myiic.o(i.IIC_Start)
    i.IIC_Stop                               0x080203a8   Section        0  myiic.o(i.IIC_Stop)
    i.IIC_Wait_Ack                           0x08020404   Section        0  myiic.o(i.IIC_Wait_Ack)
    i.IMDAT_Deal                             0x08020468   Section        0  getimu.o(i.IMDAT_Deal)
    i.IMUCompensate                          0x08020518   Section        0  insnav.o(i.IMUCompensate)
    i.IMUData_Deal                           0x08020700   Section        0  getimu.o(i.IMUData_Deal)
    i.IMU_ALL_DMA                            0x08020a5c   Section        0  getimu.o(i.IMU_ALL_DMA)
    i.INSAlign                               0x08020b78   Section        0  insalign.o(i.INSAlign)
    i.INSUpdate                              0x080219d0   Section        0  insnav.o(i.INSUpdate)
    i.IWDG_ReloadCounter                     0x08025a8c   Section        0  stm32f4xx_iwdg.o(i.IWDG_ReloadCounter)
    i.InitGyroBias                           0x08025a9c   Section        0  insalign.o(i.InitGyroBias)
    i.InitInstallMat                         0x08025d2c   Section        0  insnav.o(i.InitInstallMat)
    i.Interrupt_Any_motion                   0x0802726c   Section        0  getacc.o(i.Interrupt_Any_motion)
    i.Message_Ack_handle                     0x08027370   Section        0  stm32f4xx_it.o(i.Message_Ack_handle)
    i.MisAngle_Flash_Decode                  0x080274c0   Section        0  stmflash.o(i.MisAngle_Flash_Decode)
    i.MisAngle_Flash_INI                     0x08027704   Section        0  stmflash.o(i.MisAngle_Flash_INI)
    i.MisAngle_Flash_Save                    0x0802791c   Section        0  stmflash.o(i.MisAngle_Flash_Save)
    i.NVIC_Configuration                     0x080279b0   Section        0  hw_config.o(i.NVIC_Configuration)
    i.NVIC_ConfigurationDis                  0x08027a94   Section        0  hw_config.o(i.NVIC_ConfigurationDis)
    i.NVIC_Init                              0x08027b34   Section        0  misc.o(i.NVIC_Init)
    i.NVIC_PriorityGroupConfig               0x08027bac   Section        0  misc.o(i.NVIC_PriorityGroupConfig)
    i.NVIC_SetVectorTable                    0x08027bc0   Section        0  misc.o(i.NVIC_SetVectorTable)
    i.NormQuat                               0x08027bd4   Section        0  basicfunc.o(i.NormQuat)
    i.PWR_ClearFlag                          0x08027d4c   Section        0  stm32f4xx_pwr.o(i.PWR_ClearFlag)
    i.PWR_EnterSTANDBYMode                   0x08027d60   Section        0  stm32f4xx_pwr.o(i.PWR_EnterSTANDBYMode)
    i.PWR_EnterSTOPMode                      0x08027d88   Section        0  stm32f4xx_pwr.o(i.PWR_EnterSTOPMode)
    i.PWR_WakeUpPinCmd                       0x08027dcc   Section        0  stm32f4xx_pwr.o(i.PWR_WakeUpPinCmd)
    i.Pack_GnssData                          0x08027dd8   Section        0  sendgps.o(i.Pack_GnssData)
    i.Pack_IMUData                           0x08027e40   Section        0  getimu.o(i.Pack_IMUData)
    i.Pack_Send_Debug                        0x080280f0   Section        0  sendgps.o(i.Pack_Send_Debug)
    i.Para_Data_Protection                   0x080281cc   Section        0  stmflash.o(i.Para_Data_Protection)
    i.Para_Flash_Decode                      0x08028384   Section        0  stmflash.o(i.Para_Flash_Decode)
    i.Para_Flash_INI                         0x08028464   Section        0  stmflash.o(i.Para_Flash_INI)
    i.ProcessAgeTOA                          0x0802852c   Section        0  sendgps.o(i.ProcessAgeTOA)
    i.ProcessCheckIMU                        0x08028610   Section        0  getimu.o(i.ProcessCheckIMU)
    i.ProcessCheckResult                     0x08028658   Section        0  sendgps.o(i.ProcessCheckResult)
    i.ProcessCheckToA                        0x080286a0   Section        0  sendgps.o(i.ProcessCheckToA)
    i.ProcessCheckToAIMU                     0x08028714   Section        0  getimu.o(i.ProcessCheckToAIMU)
    i.ProcessCommand                         0x08028788   Section        0  getgps.o(i.ProcessCommand)
    i.ProcessGPGGA                           0x08028af4   Section        0  getgps.o(i.ProcessGPGGA)
    i.ProcessGPGSA                           0x08028f40   Section        0  getgps.o(i.ProcessGPGSA)
    i.ProcessGPGST                           0x08029068   Section        0  getgps.o(i.ProcessGPGST)
    i.ProcessGPGSV                           0x08029150   Section        0  getgps.o(i.ProcessGPGSV)
    i.ProcessGPRMC                           0x080292b0   Section        0  getgps.o(i.ProcessGPRMC)
    i.ProcessGPVTG                           0x080296f0   Section        0  getgps.o(i.ProcessGPVTG)
    i.ProcessGPZDA                           0x08029898   Section        0  getgps.o(i.ProcessGPZDA)
    i.ProcessIITOA                           0x08029a30   Section        0  sendgps.o(i.ProcessIITOA)
    i.ProcessITOA                            0x08029adc   Section        0  sendgps.o(i.ProcessITOA)
    i.ProcessITOAH                           0x08029b2c   Section        0  getimu.o(i.ProcessITOAH)
    i.ProcessITOAM                           0x08029b7c   Section        0  getimu.o(i.ProcessITOAM)
    i.ProcessLatToA                          0x08029bf0   Section        0  sendgps.o(i.ProcessLatToA)
    i.ProcessLongToA                         0x08029e8c   Section        0  sendgps.o(i.ProcessLongToA)
    i.ProcessNMEA                            0x0802a140   Section        0  getgps.o(i.ProcessNMEA)
    i.ProcessSFTOA                           0x0802a2c8   Section        0  sendgps.o(i.ProcessSFTOA)
    i.ProcessSSFTOA                          0x0802ac04   Section        0  sendgps.o(i.ProcessSSFTOA)
    i.ProcessVTOA                            0x0802b590   Section        0  commdata.o(i.ProcessVTOA)
    i.ProcessZLSFTOA                         0x0802b63c   Section        0  sendgps.o(i.ProcessZLSFTOA)
    i.Quat2CM                                0x0802ba3c   Section        0  basicfunc.o(i.Quat2CM)
    i.QuatMulti                              0x0802bd90   Section        0  basicfunc.o(i.QuatMulti)
    i.RCC_AHB1PeriphClockCmd                 0x0802c138   Section        0  stm32f4xx_rcc.o(i.RCC_AHB1PeriphClockCmd)
    i.RCC_APB1PeriphClockCmd                 0x0802c158   Section        0  stm32f4xx_rcc.o(i.RCC_APB1PeriphClockCmd)
    i.RCC_APB2PeriphClockCmd                 0x0802c178   Section        0  stm32f4xx_rcc.o(i.RCC_APB2PeriphClockCmd)
    i.RCC_Configuration                      0x0802c198   Section        0  hw_config.o(i.RCC_Configuration)
    i.RCC_GetClocksFreq                      0x0802c1c8   Section        0  stm32f4xx_rcc.o(i.RCC_GetClocksFreq)
    i.RotVec2Quat                            0x0802c2b0   Section        0  basicfunc.o(i.RotVec2Quat)
    i.SPI_ADS_SendData                       0x0802c69c   Section        0  spi.o(i.SPI_ADS_SendData)
    i.SPI_Cmd                                0x0802c6d8   Section        0  stm32f4xx_spi.o(i.SPI_Cmd)
    i.SPI_Configuration                      0x0802c6f0   Section        0  hw_config.o(i.SPI_Configuration)
    i.SPI_I2S_GetFlagStatus                  0x0802c744   Section        0  stm32f4xx_spi.o(i.SPI_I2S_GetFlagStatus)
    i.SPI_I2S_ReceiveData                    0x0802c756   Section        0  stm32f4xx_spi.o(i.SPI_I2S_ReceiveData)
    i.SPI_I2S_SendData                       0x0802c75c   Section        0  stm32f4xx_spi.o(i.SPI_I2S_SendData)
    i.SPI_Init                               0x0802c760   Section        0  stm32f4xx_spi.o(i.SPI_Init)
    i.STMFLASH_GetFlashSector                0x0802c79c   Section        0  stmflash.o(i.STMFLASH_GetFlashSector)
    i.STMFLASH_Read                          0x0802c83c   Section        0  stmflash.o(i.STMFLASH_Read)
    i.STMFLASH_ReadWord                      0x0802c85c   Section        0  stmflash.o(i.STMFLASH_ReadWord)
    i.STMFLASH_Write                         0x0802c864   Section        0  stmflash.o(i.STMFLASH_Write)
    i.SYSCFG_EXTILineConfig                  0x0802c914   Section        0  stm32f4xx_syscfg.o(i.SYSCFG_EXTILineConfig)
    i.SaveGpsData                            0x0802c954   Section        0  getgps.o(i.SaveGpsData)
    i.Save_ALLIMUData                        0x0802c994   Section        0  getimu.o(i.Save_ALLIMUData)
    i.Save_DATData                           0x0802ca88   Section        0  getimu.o(i.Save_DATData)
    i.Save_IMUData                           0x0802cb40   Section        0  getimu.o(i.Save_IMUData)
    i.SendConfigMessage                      0x0802cc1c   Section        0  getgps.o(i.SendConfigMessage)
    i.SendData                               0x0802d300   Section        0  commdata.o(i.SendData)
    i.SendDriver                             0x0802d7b8   Section        0  hw_config.o(i.SendDriver)
    i.SendText                               0x0802d7d4   Section        0  commdata.o(i.SendText)
    i.SendVersion                            0x0802d874   Section        0  commdata.o(i.SendVersion)
    i.Send_GPSData                           0x0802dc2c   Section        0  getgps.o(i.Send_GPSData)
    i.Send_GSAData                           0x0802dc7c   Section        0  sendgps.o(i.Send_GSAData)
    i.Send_GnssData                          0x0802dce0   Section        0  sendgps.o(i.Send_GnssData)
    i.Send_IMUData                           0x0802ddb4   Section        0  getimu.o(i.Send_IMUData)
    i.SerialPutChar                          0x0802df54   Section        0  commdata.o(i.SerialPutChar)
    i.Serial_PutString                       0x0802df9c   Section        0  commdata.o(i.Serial_PutString)
    i.SetSysClock                            0x0802dfb4   Section        0  system_stm32f4xx.o(i.SetSysClock)
    SetSysClock                              0x0802dfb5   Thumb Code   216  system_stm32f4xx.o(i.SetSysClock)
    i.Set_System                             0x0802e09c   Section        0  hw_config.o(i.Set_System)
    i.SigmaJudge                             0x0802e0c8   Section        0  gifilter.o(i.SigmaJudge)
    i.SoftReset                              0x0802e140   Section        0  stmflash.o(i.SoftReset)
    i.SysTick_CLKSourceConfig                0x0802e174   Section        0  misc.o(i.SysTick_CLKSourceConfig)
    i.SystemInit                             0x0802e19c   Section        0  system_stm32f4xx.o(i.SystemInit)
    i.TIM2_IRQHandler                        0x0802e204   Section        0  stm32f4xx_it.o(i.TIM2_IRQHandler)
    i.TIM3_Configuration                     0x0802e238   Section        0  hw_config.o(i.TIM3_Configuration)
    i.TIM3_IRQHandler                        0x0802e2d8   Section        0  stm32f4xx_it.o(i.TIM3_IRQHandler)
    i.TIM_ClearITPendingBit                  0x0802e388   Section        0  stm32f4xx_tim.o(i.TIM_ClearITPendingBit)
    i.TIM_Cmd                                0x0802e38e   Section        0  stm32f4xx_tim.o(i.TIM_Cmd)
    i.TIM_ITConfig                           0x0802e3a6   Section        0  stm32f4xx_tim.o(i.TIM_ITConfig)
    i.TIM_TimeBaseInit                       0x0802e3b8   Section        0  stm32f4xx_tim.o(i.TIM_TimeBaseInit)
    i.TriangleMatInv                         0x0802e43c   Section        0  basicfunc.o(i.TriangleMatInv)
    i.USART1_IRQHandler                      0x0802e5c0   Section        0  stm32f4xx_it.o(i.USART1_IRQHandler)
    i.USART2_IRQHandler                      0x0802e5f4   Section        0  stm32f4xx_it.o(i.USART2_IRQHandler)
    i.USART6_IRQHandler                      0x0802e630   Section        0  stm32f4xx_it.o(i.USART6_IRQHandler)
    i.USART_ClearFlag                        0x0802e65c   Section        0  stm32f4xx_usart.o(i.USART_ClearFlag)
    i.USART_ClearITPendingBit                0x0802e66e   Section        0  stm32f4xx_usart.o(i.USART_ClearITPendingBit)
    i.USART_Cmd                              0x0802e68c   Section        0  stm32f4xx_usart.o(i.USART_Cmd)
    i.USART_Configuration                    0x0802e6a4   Section        0  hw_config.o(i.USART_Configuration)
    i.USART_DMACmd                           0x0802e7d4   Section        0  stm32f4xx_usart.o(i.USART_DMACmd)
    i.USART_DMA_TX_Configuration             0x0802e7e8   Section        0  hw_config.o(i.USART_DMA_TX_Configuration)
    i.USART_GetFlagStatus                    0x0802e86c   Section        0  stm32f4xx_usart.o(i.USART_GetFlagStatus)
    i.USART_GetITStatus                      0x0802e886   Section        0  stm32f4xx_usart.o(i.USART_GetITStatus)
    i.USART_ITConfig                         0x0802e8da   Section        0  stm32f4xx_usart.o(i.USART_ITConfig)
    i.USART_Init                             0x0802e924   Section        0  stm32f4xx_usart.o(i.USART_Init)
    i.USART_ReceiveData                      0x0802e9f8   Section        0  stm32f4xx_usart.o(i.USART_ReceiveData)
    i.USART_SendData                         0x0802ea02   Section        0  stm32f4xx_usart.o(i.USART_SendData)
    i.Update_Flash_INI                       0x0802ea0c   Section        0  stmflash.o(i.Update_Flash_INI)
    i.Update_Flash_Save                      0x0802ea28   Section        0  stmflash.o(i.Update_Flash_Save)
    i.__ARM_fpclassify                       0x0802ea8c   Section        0  fpclassify.o(i.__ARM_fpclassify)
    i.__aeabi_errno_addr                     0x0802eabc   Section        0  errno.o(i.__aeabi_errno_addr)
    i.__hardfp_asin                          0x0802eac8   Section        0  asin.o(i.__hardfp_asin)
    i.__hardfp_atan                          0x0802ee28   Section        0  atan.o(i.__hardfp_atan)
    i.__hardfp_atan2                         0x0802f100   Section        0  atan2.o(i.__hardfp_atan2)
    i.__hardfp_atof                          0x0802f2f0   Section        0  atof.o(i.__hardfp_atof)
    i.__hardfp_cos                           0x0802f328   Section        0  cos.o(i.__hardfp_cos)
    i.__hardfp_fabs                          0x0802f3f0   Section        0  fabs.o(i.__hardfp_fabs)
    i.__hardfp_sin                           0x0802f408   Section        0  sin.o(i.__hardfp_sin)
    i.__hardfp_sqrt                          0x0802f4d0   Section        0  sqrt.o(i.__hardfp_sqrt)
    i.__ieee754_rem_pio2                     0x0802f550   Section        0  rred.o(i.__ieee754_rem_pio2)
    i.__kernel_cos                           0x0802f988   Section        0  cos_i.o(i.__kernel_cos)
    i.__kernel_poly                          0x0802faf8   Section        0  poly.o(i.__kernel_poly)
    i.__kernel_sin                           0x0802fbf0   Section        0  sin_i.o(i.__kernel_sin)
    i.__mathlib_dbl_infnan                   0x0802fd20   Section        0  dunder.o(i.__mathlib_dbl_infnan)
    i.__mathlib_dbl_infnan2                  0x0802fd34   Section        0  dunder.o(i.__mathlib_dbl_infnan2)
    i.__mathlib_dbl_invalid                  0x0802fd48   Section        0  dunder.o(i.__mathlib_dbl_invalid)
    i.__mathlib_dbl_underflow                0x0802fd68   Section        0  dunder.o(i.__mathlib_dbl_underflow)
    i.__read_errno                           0x0802fd88   Section        0  errno.o(i.__read_errno)
    i.__scatterload_copy                     0x0802fd94   Section       14  handlers.o(i.__scatterload_copy)
    i.__scatterload_null                     0x0802fda2   Section        2  handlers.o(i.__scatterload_null)
    i.__scatterload_zeroinit                 0x0802fda4   Section       14  handlers.o(i.__scatterload_zeroinit)
    i.__set_errno                            0x0802fdb4   Section        0  errno.o(i.__set_errno)
    i._alpu_delay_ms                         0x0802fdc0   Section        0  24cxx.o(i._alpu_delay_ms)
    i._alpu_rand                             0x0802fdcc   Section        0  24cxx.o(i._alpu_rand)
    i._i2c_read                              0x0802fe10   Section        0  24cxx.o(i._i2c_read)
    i._i2c_write                             0x0802fe60   Section        0  24cxx.o(i._i2c_write)
    i._is_digit                              0x0802feaa   Section        0  scanf_fp.o(i._is_digit)
    i.atan                                   0x0802feb8   Section        0  atan.o(i.atan)
    i.delay_init                             0x0802fec8   Section        0  delay.o(i.delay_init)
    i.delay_ms                               0x0802ff04   Section        0  delay.o(i.delay_ms)
    i.delay_us                               0x0802ff3c   Section        0  delay.o(i.delay_us)
    i.delay_xms                              0x0802ff88   Section        0  delay.o(i.delay_xms)
    i.fabs                                   0x0802ffd4   Section        0  fabs.o(i.fabs)
    i.free                                   0x0802ffec   Section        0  malloc.o(i.free)
    i.main                                   0x0803003c   Section        0  main.o(i.main)
    i.malloc                                 0x080301f4   Section        0  malloc.o(i.malloc)
    i.sqrt                                   0x08030260   Section        0  sqrt.o(i.sqrt)
    .constdata                               0x080302ce   Section       10  main.o(.constdata)
    .constdata                               0x080302d8   Section       16  basicfunc.o(.constdata)
    line_start                               0x080302d8   Data          16  basicfunc.o(.constdata)
    .constdata                               0x080302e8   Section       16  gifilter.o(.constdata)
    .constdata                               0x080302f8   Section       48  insnav.o(.constdata)
    .constdata                               0x08030328   Section       80  asin.o(.constdata)
    pS                                       0x08030328   Data          48  asin.o(.constdata)
    qS                                       0x08030358   Data          32  asin.o(.constdata)
    .constdata                               0x08030378   Section      152  atan.o(.constdata)
    atanhi                                   0x08030378   Data          32  atan.o(.constdata)
    atanlo                                   0x08030398   Data          32  atan.o(.constdata)
    aTodd                                    0x080303b8   Data          40  atan.o(.constdata)
    aTeven                                   0x080303e0   Data          48  atan.o(.constdata)
    .constdata                               0x08030410   Section       48  cos_i.o(.constdata)
    C                                        0x08030410   Data          48  cos_i.o(.constdata)
    .constdata                               0x08030440   Section        8  qnan.o(.constdata)
    .constdata                               0x08030448   Section      200  rred.o(.constdata)
    pio2s                                    0x08030448   Data          48  rred.o(.constdata)
    twooverpi                                0x08030478   Data         152  rred.o(.constdata)
    .constdata                               0x08030510   Section       40  sin_i.o(.constdata)
    S                                        0x08030510   Data          40  sin_i.o(.constdata)
    .constdata                               0x08030538   Section      129  ctype_o.o(.constdata)
    .constdata                               0x080305bc   Section        4  ctype_o.o(.constdata)
    table                                    0x080305bc   Data           4  ctype_o.o(.constdata)
    .conststring                             0x080305c0   Section      357  commdata.o(.conststring)
    .data                                    0x20000000   Section       16  stm32f4xx_rcc.o(.data)
    APBAHBPrescTable                         0x20000000   Data          16  stm32f4xx_rcc.o(.data)
    .data                                    0x20000010   Section       20  commdata.o(.data)
    GGA_TX_Max                               0x20000010   Data           1  commdata.o(.data)
    RMC_TX_Max                               0x20000011   Data           1  commdata.o(.data)
    VTG_TX_Max                               0x20000012   Data           1  commdata.o(.data)
    ATT_TX_Max                               0x20000013   Data           1  commdata.o(.data)
    GSV_TX_Max                               0x20000014   Data           1  commdata.o(.data)
    ZDA_TX_Max                               0x20000015   Data           1  commdata.o(.data)
    GGA_UP_Num                               0x20000016   Data           2  commdata.o(.data)
    ATT_UP_Num                               0x20000018   Data           2  commdata.o(.data)
    GIRMC_UP_Num                             0x2000001a   Data           2  commdata.o(.data)
    GSV_UP_Num                               0x2000001c   Data           2  commdata.o(.data)
    ZDA_UP_Num                               0x2000001e   Data           2  commdata.o(.data)
    i                                        0x20000020   Data           1  commdata.o(.data)
    TDM_Rx_Counter                           0x20000021   Data           1  commdata.o(.data)
    i                                        0x20000022   Data           2  commdata.o(.data)
    .data                                    0x20000028   Section      478  main.o(.data)
    GGA_TX_Max                               0x20000028   Data           1  main.o(.data)
    RMC_TX_Max                               0x20000029   Data           1  main.o(.data)
    VTG_TX_Max                               0x2000002a   Data           1  main.o(.data)
    ATT_TX_Max                               0x2000002b   Data           1  main.o(.data)
    GSV_TX_Max                               0x2000002c   Data           1  main.o(.data)
    ZDA_TX_Max                               0x2000002d   Data           1  main.o(.data)
    GGA_UP_Num                               0x2000002e   Data           2  main.o(.data)
    ATT_UP_Num                               0x20000030   Data           2  main.o(.data)
    GIRMC_UP_Num                             0x20000032   Data           2  main.o(.data)
    GSV_UP_Num                               0x20000034   Data           2  main.o(.data)
    ZDA_UP_Num                               0x20000036   Data           2  main.o(.data)
    .data                                    0x20000206   Section       22  stm32f4xx_it.o(.data)
    GGA_TX_Max                               0x20000206   Data           1  stm32f4xx_it.o(.data)
    RMC_TX_Max                               0x20000207   Data           1  stm32f4xx_it.o(.data)
    VTG_TX_Max                               0x20000208   Data           1  stm32f4xx_it.o(.data)
    ATT_TX_Max                               0x20000209   Data           1  stm32f4xx_it.o(.data)
    GSV_TX_Max                               0x2000020a   Data           1  stm32f4xx_it.o(.data)
    ZDA_TX_Max                               0x2000020b   Data           1  stm32f4xx_it.o(.data)
    GGA_UP_Num                               0x2000020c   Data           2  stm32f4xx_it.o(.data)
    ATT_UP_Num                               0x2000020e   Data           2  stm32f4xx_it.o(.data)
    GIRMC_UP_Num                             0x20000210   Data           2  stm32f4xx_it.o(.data)
    GSV_UP_Num                               0x20000212   Data           2  stm32f4xx_it.o(.data)
    ZDA_UP_Num                               0x20000214   Data           2  stm32f4xx_it.o(.data)
    uart2_data                               0x20000218   Data           1  stm32f4xx_it.o(.data)
    uart1_data                               0x20000219   Data           1  stm32f4xx_it.o(.data)
    uart6_data                               0x2000021a   Data           1  stm32f4xx_it.o(.data)
    Dog_Num                                  0x2000021b   Data           1  stm32f4xx_it.o(.data)
    .data                                    0x2000021c   Section        8  24cxx.o(.data)
    seed                                     0x20000220   Data           4  24cxx.o(.data)
    .data                                    0x20000224   Section        4  delay.o(.data)
    fac_us                                   0x20000224   Data           1  delay.o(.data)
    fac_ms                                   0x20000226   Data           2  delay.o(.data)
    .data                                    0x20000228   Section       26  getnass.o(.data)
    GGA_TX_Max                               0x20000228   Data           1  getnass.o(.data)
    RMC_TX_Max                               0x20000229   Data           1  getnass.o(.data)
    VTG_TX_Max                               0x2000022a   Data           1  getnass.o(.data)
    ATT_TX_Max                               0x2000022b   Data           1  getnass.o(.data)
    GSV_TX_Max                               0x2000022c   Data           1  getnass.o(.data)
    ZDA_TX_Max                               0x2000022d   Data           1  getnass.o(.data)
    GGA_UP_Num                               0x2000022e   Data           2  getnass.o(.data)
    ATT_UP_Num                               0x20000230   Data           2  getnass.o(.data)
    GIRMC_UP_Num                             0x20000232   Data           2  getnass.o(.data)
    GSV_UP_Num                               0x20000234   Data           2  getnass.o(.data)
    ZDA_UP_Num                               0x20000236   Data           2  getnass.o(.data)
    GGA_GGet_Flag                            0x20000238   Data           1  getnass.o(.data)
    RMC_GGet_Flag                            0x20000239   Data           1  getnass.o(.data)
    TimeNum                                  0x2000023a   Data           1  getnass.o(.data)
    VTG_GGet_Flag                            0x2000023b   Data           1  getnass.o(.data)
    GST_GGet_Flag                            0x2000023c   Data           1  getnass.o(.data)
    Ins_Num                                  0x2000023d   Data           1  getnass.o(.data)
    Gps_Num                                  0x2000023e   Data           1  getnass.o(.data)
    AgeFirst                                 0x2000023f   Data           1  getnass.o(.data)
    AgeNum                                   0x20000240   Data           1  getnass.o(.data)
    AgeData                                  0x20000241   Data           1  getnass.o(.data)
    .data                                    0x20000242   Section       48  getgps.o(.data)
    GGA_TX_Max                               0x20000242   Data           1  getgps.o(.data)
    RMC_TX_Max                               0x20000243   Data           1  getgps.o(.data)
    VTG_TX_Max                               0x20000244   Data           1  getgps.o(.data)
    ATT_TX_Max                               0x20000245   Data           1  getgps.o(.data)
    GSV_TX_Max                               0x20000246   Data           1  getgps.o(.data)
    ZDA_TX_Max                               0x20000247   Data           1  getgps.o(.data)
    GGA_UP_Num                               0x20000248   Data           2  getgps.o(.data)
    ATT_UP_Num                               0x2000024a   Data           2  getgps.o(.data)
    GIRMC_UP_Num                             0x2000024c   Data           2  getgps.o(.data)
    GSV_UP_Num                               0x2000024e   Data           2  getgps.o(.data)
    ZDA_UP_Num                               0x20000250   Data           2  getgps.o(.data)
    i                                        0x20000252   Data           1  getgps.o(.data)
    utc_num                                  0x20000253   Data           1  getgps.o(.data)
    GGA_TI_Flag                              0x20000254   Data           1  getgps.o(.data)
    i                                        0x20000256   Data           2  getgps.o(.data)
    m_nState                                 0x20000258   Data           1  getgps.o(.data)
    m_btChecksum                             0x20000259   Data           1  getgps.o(.data)
    m_btReceivedChecksum                     0x2000025a   Data           1  getgps.o(.data)
    m_wIndex                                 0x2000025c   Data           2  getgps.o(.data)
    m_pCommand                               0x2000025e   Data           8  getgps.o(.data)
    Gps_GError_Flag                          0x20000266   Data           1  getgps.o(.data)
    Gps_GError_Flag                          0x20000267   Data           1  getgps.o(.data)
    i                                        0x20000268   Data           1  getgps.o(.data)
    svid                                     0x20000269   Data           1  getgps.o(.data)
    index                                    0x2000026a   Data           1  getgps.o(.data)
    i                                        0x2000026b   Data           1  getgps.o(.data)
    svid                                     0x2000026c   Data           1  getgps.o(.data)
    index                                    0x2000026d   Data           1  getgps.o(.data)
    All                                      0x2000026e   Data           1  getgps.o(.data)
    Part                                     0x2000026f   Data           1  getgps.o(.data)
    i                                        0x20000270   Data           1  getgps.o(.data)
    Com_TX_Num                               0x20000271   Data           1  getgps.o(.data)
    .data                                    0x20000274   Section       16  getacc.o(.data)
    First                                    0x20000275   Data           1  getacc.o(.data)
    g_data_Back                              0x20000276   Data           2  getacc.o(.data)
    First                                    0x20000278   Data           1  getacc.o(.data)
    g_data_Back                              0x2000027a   Data           2  getacc.o(.data)
    First                                    0x2000027c   Data           1  getacc.o(.data)
    g_data_Back                              0x2000027e   Data           2  getacc.o(.data)
    AcceratorData                            0x20000280   Data           4  getacc.o(.data)
    .data                                    0x20000284   Section       24  getgyr.o(.data)
    First                                    0x20000284   Data           4  getgyr.o(.data)
    g_data_Back                              0x20000288   Data           4  getgyr.o(.data)
    First                                    0x2000028c   Data           4  getgyr.o(.data)
    g_data_Back                              0x20000290   Data           4  getgyr.o(.data)
    First                                    0x20000294   Data           4  getgyr.o(.data)
    g_data_Back                              0x20000298   Data           4  getgyr.o(.data)
    .data                                    0x2000029c   Section       31  getimu.o(.data)
    GGA_TX_Max                               0x2000029c   Data           1  getimu.o(.data)
    RMC_TX_Max                               0x2000029d   Data           1  getimu.o(.data)
    VTG_TX_Max                               0x2000029e   Data           1  getimu.o(.data)
    ATT_TX_Max                               0x2000029f   Data           1  getimu.o(.data)
    GSV_TX_Max                               0x200002a0   Data           1  getimu.o(.data)
    ZDA_TX_Max                               0x200002a1   Data           1  getimu.o(.data)
    GGA_UP_Num                               0x200002a2   Data           2  getimu.o(.data)
    ATT_UP_Num                               0x200002a4   Data           2  getimu.o(.data)
    GIRMC_UP_Num                             0x200002a6   Data           2  getimu.o(.data)
    GSV_UP_Num                               0x200002a8   Data           2  getimu.o(.data)
    ZDA_UP_Num                               0x200002aa   Data           2  getimu.o(.data)
    i                                        0x200002ac   Data           1  getimu.o(.data)
    Run_Flag                                 0x200002ad   Data           1  getimu.o(.data)
    CFlag                                    0x200002ae   Data           1  getimu.o(.data)
    i                                        0x200002af   Data           1  getimu.o(.data)
    i                                        0x200002b0   Data           1  getimu.o(.data)
    i                                        0x200002b1   Data           1  getimu.o(.data)
    CheckNum                                 0x200002b2   Data           1  getimu.o(.data)
    i                                        0x200002b3   Data           1  getimu.o(.data)
    i                                        0x200002b4   Data           1  getimu.o(.data)
    i                                        0x200002b5   Data           1  getimu.o(.data)
    i                                        0x200002b6   Data           1  getimu.o(.data)
    i                                        0x200002b7   Data           1  getimu.o(.data)
    j                                        0x200002b8   Data           1  getimu.o(.data)
    PackFlag                                 0x200002b9   Data           1  getimu.o(.data)
    D_Num                                    0x200002ba   Data           1  getimu.o(.data)
    .data                                    0x200002c0   Section      132  sendgps.o(.data)
    GGA_TX_Max                               0x200002c0   Data           1  sendgps.o(.data)
    RMC_TX_Max                               0x200002c1   Data           1  sendgps.o(.data)
    VTG_TX_Max                               0x200002c2   Data           1  sendgps.o(.data)
    ATT_TX_Max                               0x200002c3   Data           1  sendgps.o(.data)
    GSV_TX_Max                               0x200002c4   Data           1  sendgps.o(.data)
    ZDA_TX_Max                               0x200002c5   Data           1  sendgps.o(.data)
    GGA_UP_Num                               0x200002c6   Data           2  sendgps.o(.data)
    ATT_UP_Num                               0x200002c8   Data           2  sendgps.o(.data)
    GIRMC_UP_Num                             0x200002ca   Data           2  sendgps.o(.data)
    GSV_UP_Num                               0x200002cc   Data           2  sendgps.o(.data)
    ZDA_UP_Num                               0x200002ce   Data           2  sendgps.o(.data)
    AVRNum                                   0x200002d0   Data           1  sendgps.o(.data)
    Degree                                   0x200002d1   Data           1  sendgps.o(.data)
    ZF_Flag                                  0x200002d2   Data           1  sendgps.o(.data)
    i                                        0x200002d3   Data           1  sendgps.o(.data)
    Angle                                    0x200002d4   Data           2  sendgps.o(.data)
    AngleDot                                 0x200002d8   Data           4  sendgps.o(.data)
    AVRNum                                   0x200002dc   Data           1  sendgps.o(.data)
    Degree                                   0x200002dd   Data           1  sendgps.o(.data)
    ZF_Flag                                  0x200002de   Data           1  sendgps.o(.data)
    i                                        0x200002df   Data           1  sendgps.o(.data)
    Angle                                    0x200002e0   Data           2  sendgps.o(.data)
    AngleDot                                 0x200002e4   Data           4  sendgps.o(.data)
    i                                        0x200002e8   Data           1  sendgps.o(.data)
    Latitude                                 0x200002e9   Data           1  sendgps.o(.data)
    DLatitudePart                            0x200002f0   Data           8  sendgps.o(.data)
    LatitudePart                             0x200002f8   Data           8  sendgps.o(.data)
    AngDot                                   0x20000300   Data           8  sendgps.o(.data)
    i                                        0x20000308   Data           1  sendgps.o(.data)
    Anglel                                   0x20000310   Data           8  sendgps.o(.data)
    AVRNum                                   0x20000318   Data           1  sendgps.o(.data)
    Degree                                   0x20000319   Data           1  sendgps.o(.data)
    i                                        0x2000031a   Data           1  sendgps.o(.data)
    Angle                                    0x2000031c   Data           2  sendgps.o(.data)
    AngleDot                                 0x20000320   Data           4  sendgps.o(.data)
    i                                        0x20000324   Data           1  sendgps.o(.data)
    Longitude                                0x20000325   Data           1  sendgps.o(.data)
    LongitudePart                            0x20000328   Data           8  sendgps.o(.data)
    i                                        0x20000330   Data           1  sendgps.o(.data)
    i                                        0x20000332   Data           2  sendgps.o(.data)
    CheckNum                                 0x20000334   Data           1  sendgps.o(.data)
    Degree                                   0x20000335   Data           1  sendgps.o(.data)
    Degree                                   0x20000336   Data           1  sendgps.o(.data)
    ZF_Flag                                  0x20000337   Data           1  sendgps.o(.data)
    i                                        0x20000338   Data           1  sendgps.o(.data)
    i                                        0x20000339   Data           1  sendgps.o(.data)
    Degree                                   0x2000033a   Data           1  sendgps.o(.data)
    GroundSpeed                              0x2000033c   Data           4  sendgps.o(.data)
    i                                        0x20000340   Data           1  sendgps.o(.data)
    i                                        0x20000341   Data           1  sendgps.o(.data)
    i                                        0x20000342   Data           1  sendgps.o(.data)
    i                                        0x20000343   Data           1  sendgps.o(.data)
    .data                                    0x20000344   Section       28  ginavmain.o(.data)
    GGA_TX_Max                               0x20000344   Data           1  ginavmain.o(.data)
    RMC_TX_Max                               0x20000345   Data           1  ginavmain.o(.data)
    VTG_TX_Max                               0x20000346   Data           1  ginavmain.o(.data)
    ATT_TX_Max                               0x20000347   Data           1  ginavmain.o(.data)
    GSV_TX_Max                               0x20000348   Data           1  ginavmain.o(.data)
    ZDA_TX_Max                               0x20000349   Data           1  ginavmain.o(.data)
    GGA_UP_Num                               0x2000034a   Data           2  ginavmain.o(.data)
    ATT_UP_Num                               0x2000034c   Data           2  ginavmain.o(.data)
    GIRMC_UP_Num                             0x2000034e   Data           2  ginavmain.o(.data)
    GSV_UP_Num                               0x20000350   Data           2  ginavmain.o(.data)
    ZDA_UP_Num                               0x20000352   Data           2  ginavmain.o(.data)
    TimeNum                                  0x20000354   Data           1  ginavmain.o(.data)
    FirstFlag                                0x20000355   Data           1  ginavmain.o(.data)
    NavStatus                                0x20000356   Data           1  ginavmain.o(.data)
    GNSS_Run_Flag                            0x20000357   Data           1  ginavmain.o(.data)
    ZeroSecond                               0x20000358   Data           1  ginavmain.o(.data)
    GstBestNum                               0x2000035a   Data           2  ginavmain.o(.data)
    GstBadNum                                0x2000035c   Data           2  ginavmain.o(.data)
    AgeGetNum                                0x2000035e   Data           2  ginavmain.o(.data)
    .data                                    0x20000360   Section       52  gifilter.o(.data)
    LowFlag                                  0x20000360   Data           1  gifilter.o(.data)
    HighFlag                                 0x20000361   Data           1  gifilter.o(.data)
    CarFlag                                  0x20000362   Data           1  gifilter.o(.data)
    RunFlag                                  0x20000363   Data           1  gifilter.o(.data)
    GstGoodNum                               0x20000364   Data           2  gifilter.o(.data)
    HighGoNum                                0x20000366   Data           2  gifilter.o(.data)
    VLevel                                   0x20000368   Data           8  gifilter.o(.data)
    delta_Heading                            0x20000370   Data           8  gifilter.o(.data)
    THeading                                 0x20000378   Data           8  gifilter.o(.data)
    Yaw_Scale                                0x20000380   Data           8  gifilter.o(.data)
    HeadingTemp                              0x20000388   Data           8  gifilter.o(.data)
    RmcHeadGetFlag                           0x20000390   Data           1  gifilter.o(.data)
    HighSpeedNum                             0x20000391   Data           1  gifilter.o(.data)
    BigErrorNum                              0x20000392   Data           2  gifilter.o(.data)
    .data                                    0x20000394   Section       36  gnss.o(.data)
    GGA_TX_Max                               0x20000394   Data           1  gnss.o(.data)
    RMC_TX_Max                               0x20000395   Data           1  gnss.o(.data)
    VTG_TX_Max                               0x20000396   Data           1  gnss.o(.data)
    ATT_TX_Max                               0x20000397   Data           1  gnss.o(.data)
    GSV_TX_Max                               0x20000398   Data           1  gnss.o(.data)
    ZDA_TX_Max                               0x20000399   Data           1  gnss.o(.data)
    GGA_UP_Num                               0x2000039a   Data           2  gnss.o(.data)
    ATT_UP_Num                               0x2000039c   Data           2  gnss.o(.data)
    GIRMC_UP_Num                             0x2000039e   Data           2  gnss.o(.data)
    GSV_UP_Num                               0x200003a0   Data           2  gnss.o(.data)
    ZDA_UP_Num                               0x200003a2   Data           2  gnss.o(.data)
    i                                        0x200003a4   Data           4  gnss.o(.data)
    Deta_SNum                                0x200003a8   Data           2  gnss.o(.data)
    Head_BNum                                0x200003aa   Data           2  gnss.o(.data)
    Head_SNum                                0x200003ac   Data           2  gnss.o(.data)
    GyrNum                                   0x200003ae   Data           2  gnss.o(.data)
    PosFirst                                 0x200003b0   Data           1  gnss.o(.data)
    MaxScale                                 0x200003b1   Data           1  gnss.o(.data)
    BigErrorFlag                             0x200003b2   Data           1  gnss.o(.data)
    Length_Big_Num                           0x200003b4   Data           2  gnss.o(.data)
    GpsBackNum                               0x200003b6   Data           2  gnss.o(.data)
    .data                                    0x200003b8   Section        8  insalign.o(.data)
    SmoothCount                              0x200003b8   Data           4  insalign.o(.data)
    Att_Flag                                 0x200003bc   Data           1  insalign.o(.data)
    StartNum                                 0x200003bd   Data           1  insalign.o(.data)
    HeadNum                                  0x200003be   Data           2  insalign.o(.data)
    .data                                    0x200003c0   Section       16  insnav.o(.data)
    SmoothCount                              0x200003c0   Data           4  insnav.o(.data)
    SmoothCount                              0x200003c4   Data           4  insnav.o(.data)
    SmoothCount                              0x200003c8   Data           4  insnav.o(.data)
    delta_Heading                            0x200003cc   Data           4  insnav.o(.data)
    .data                                    0x200003d0   Section       59  alpu-c-0ff.o(.data)
    .data                                    0x2000040c   Section        4  rand.o(.data)
    _rand_state                              0x2000040c   Data           4  rand.o(.data)
    .data                                    0x20000410   Section        4  mvars.o(.data)
    .data                                    0x20000414   Section        4  mvars.o(.data)
    .data                                    0x20000418   Section        4  errno.o(.data)
    _errno                                   0x20000418   Data           4  errno.o(.data)
    .bss                                     0x20000420   Section     6148  main.o(.bss)
    CPU_ID                                   0x20000420   Data          12  main.o(.bss)
    CPU_Get_ID                               0x2000042c   Data          12  main.o(.bss)
    .bss                                     0x20001c24   Section       12  stm32f4xx_it.o(.bss)
    .bss                                     0x20001c30   Section       65  getgps.o(.bss)
    Gps_Command_Data                         0x20001c30   Data          65  getgps.o(.bss)
    .bss                                     0x20001c74   Section       24  getimu.o(.bss)
    IMU_SDatatT                              0x20001c74   Data          24  getimu.o(.bss)
    .bss                                     0x20001c8c   Section       24  encryptid.o(.bss)
    CPU_ID                                   0x20001c8c   Data          12  encryptid.o(.bss)
    CPU_Get_ID                               0x20001c98   Data          12  encryptid.o(.bss)
    .bss                                     0x20001ca8   Section       72  ginavmain.o(.bss)
    PosBack                                  0x20001ca8   Data          24  ginavmain.o(.bss)
    VelBack                                  0x20001cc0   Data          24  ginavmain.o(.bss)
    EulerBack                                0x20001cd8   Data          24  ginavmain.o(.bss)
    .bss                                     0x20001cf0   Section     2028  gifilter.o(.bss)
    GIKFdata                                 0x20001cf0   Data        1848  gifilter.o(.bss)
    .bss                                     0x200024e0   Section     1656  globalvars.o(.bss)
    .bss                                     0x20002b58   Section       48  gnss.o(.bss)
    PosBack                                  0x20002b58   Data          24  gnss.o(.bss)
    VolBack                                  0x20002b70   Data          24  gnss.o(.bss)
    .bss                                     0x20002b88   Section       24  insalign.o(.bss)
    AccSmoother                              0x20002b88   Data          24  insalign.o(.bss)
    .bss                                     0x20002ba0   Section      144  insnav.o(.bss)
    GyroSmoother                             0x20002ba0   Data          24  insnav.o(.bss)
    AccSmoother                              0x20002bb8   Data          24  insnav.o(.bss)
    GyroDifSmoother                          0x20002bd0   Data          24  insnav.o(.bss)
    AccDifSmoother                           0x20002be8   Data          24  insnav.o(.bss)
    AccSmoother                              0x20002c00   Data          24  insnav.o(.bss)
    AccSmoother                              0x20002c18   Data          24  insnav.o(.bss)
    .bss                                     0x20002c30   Section       32  alpu-c-0ff.o(.bss)
    HEAP                                     0x20002c50   Section    13824  startup_stm32f401xx.o(HEAP)
    STACK                                    0x20006250   Section    33280  startup_stm32f401xx.o(STACK)

    Global Symbols

    Symbol Name                              Value     Ov Type        Size  Object(Section)

    BuildAttributes$$THM_ISAv4$E$P$D$K$B$S$7EM$VFPi3$EXTD16$VFPS$VFMA$PE$A:L22UL41UL21$X:L11$S22US41US21$IEEE1$IW$USESV6$~STKCKD$USESV7$~SHL$OTIME$ROPI$IEEEX$EBA8$MICROLIB$REQ8$PRES8$EABIv2 0x00000000   Number         0  anon$$obj.o ABSOLUTE
    __ARM_use_no_argv                        0x00000000   Number         0  main.o ABSOLUTE
    __cpp_initialize__aeabi_                  - Undefined Weak Reference
    __cxa_finalize                            - Undefined Weak Reference
    _clock_init                               - Undefined Weak Reference
    _microlib_exit                            - Undefined Weak Reference
    __Vectors_Size                           0x00000194   Number         0  startup_stm32f401xx.o ABSOLUTE
    __Vectors                                0x08010000   Data           4  startup_stm32f401xx.o(RESET)
    __Vectors_End                            0x08010194   Data           0  startup_stm32f401xx.o(RESET)
    __main                                   0x08010195   Thumb Code     0  entry.o(.ARM.Collect$$$$00000000)
    _main_stk                                0x08010195   Thumb Code     0  entry2.o(.ARM.Collect$$$$00000001)
    _main_scatterload                        0x08010199   Thumb Code     0  entry5.o(.ARM.Collect$$$$00000004)
    __main_after_scatterload                 0x0801019d   Thumb Code     0  entry5.o(.ARM.Collect$$$$00000004)
    _main_clock                              0x0801019d   Thumb Code     0  entry7b.o(.ARM.Collect$$$$00000008)
    _main_cpp_init                           0x0801019d   Thumb Code     0  entry8b.o(.ARM.Collect$$$$0000000A)
    _main_init                               0x0801019d   Thumb Code     0  entry9a.o(.ARM.Collect$$$$0000000B)
    __rt_final_cpp                           0x080101a5   Thumb Code     0  entry10a.o(.ARM.Collect$$$$0000000D)
    __rt_final_exit                          0x080101a5   Thumb Code     0  entry11a.o(.ARM.Collect$$$$0000000F)
    Reset_Handler                            0x080101a9   Thumb Code     8  startup_stm32f401xx.o(.text)
    NMI_Handler                              0x080101b1   Thumb Code     2  startup_stm32f401xx.o(.text)
    HardFault_Handler                        0x080101b3   Thumb Code     2  startup_stm32f401xx.o(.text)
    MemManage_Handler                        0x080101b5   Thumb Code     2  startup_stm32f401xx.o(.text)
    BusFault_Handler                         0x080101b7   Thumb Code     2  startup_stm32f401xx.o(.text)
    UsageFault_Handler                       0x080101b9   Thumb Code     2  startup_stm32f401xx.o(.text)
    SVC_Handler                              0x080101bb   Thumb Code     2  startup_stm32f401xx.o(.text)
    DebugMon_Handler                         0x080101bd   Thumb Code     2  startup_stm32f401xx.o(.text)
    PendSV_Handler                           0x080101bf   Thumb Code     2  startup_stm32f401xx.o(.text)
    SysTick_Handler                          0x080101c1   Thumb Code     2  startup_stm32f401xx.o(.text)
    ADC_IRQHandler                           0x080101c3   Thumb Code     0  startup_stm32f401xx.o(.text)
    DMA1_Stream0_IRQHandler                  0x080101c3   Thumb Code     0  startup_stm32f401xx.o(.text)
    DMA1_Stream1_IRQHandler                  0x080101c3   Thumb Code     0  startup_stm32f401xx.o(.text)
    DMA1_Stream2_IRQHandler                  0x080101c3   Thumb Code     0  startup_stm32f401xx.o(.text)
    DMA1_Stream3_IRQHandler                  0x080101c3   Thumb Code     0  startup_stm32f401xx.o(.text)
    DMA1_Stream4_IRQHandler                  0x080101c3   Thumb Code     0  startup_stm32f401xx.o(.text)
    DMA1_Stream5_IRQHandler                  0x080101c3   Thumb Code     0  startup_stm32f401xx.o(.text)
    DMA1_Stream6_IRQHandler                  0x080101c3   Thumb Code     0  startup_stm32f401xx.o(.text)
    DMA1_Stream7_IRQHandler                  0x080101c3   Thumb Code     0  startup_stm32f401xx.o(.text)
    DMA2_Stream0_IRQHandler                  0x080101c3   Thumb Code     0  startup_stm32f401xx.o(.text)
    DMA2_Stream1_IRQHandler                  0x080101c3   Thumb Code     0  startup_stm32f401xx.o(.text)
    DMA2_Stream2_IRQHandler                  0x080101c3   Thumb Code     0  startup_stm32f401xx.o(.text)
    DMA2_Stream3_IRQHandler                  0x080101c3   Thumb Code     0  startup_stm32f401xx.o(.text)
    DMA2_Stream4_IRQHandler                  0x080101c3   Thumb Code     0  startup_stm32f401xx.o(.text)
    DMA2_Stream5_IRQHandler                  0x080101c3   Thumb Code     0  startup_stm32f401xx.o(.text)
    DMA2_Stream6_IRQHandler                  0x080101c3   Thumb Code     0  startup_stm32f401xx.o(.text)
    EXTI1_IRQHandler                         0x080101c3   Thumb Code     0  startup_stm32f401xx.o(.text)
    EXTI2_IRQHandler                         0x080101c3   Thumb Code     0  startup_stm32f401xx.o(.text)
    EXTI3_IRQHandler                         0x080101c3   Thumb Code     0  startup_stm32f401xx.o(.text)
    EXTI4_IRQHandler                         0x080101c3   Thumb Code     0  startup_stm32f401xx.o(.text)
    EXTI9_5_IRQHandler                       0x080101c3   Thumb Code     0  startup_stm32f401xx.o(.text)
    FLASH_IRQHandler                         0x080101c3   Thumb Code     0  startup_stm32f401xx.o(.text)
    FPU_IRQHandler                           0x080101c3   Thumb Code     0  startup_stm32f401xx.o(.text)
    I2C1_ER_IRQHandler                       0x080101c3   Thumb Code     0  startup_stm32f401xx.o(.text)
    I2C1_EV_IRQHandler                       0x080101c3   Thumb Code     0  startup_stm32f401xx.o(.text)
    I2C2_ER_IRQHandler                       0x080101c3   Thumb Code     0  startup_stm32f401xx.o(.text)
    I2C2_EV_IRQHandler                       0x080101c3   Thumb Code     0  startup_stm32f401xx.o(.text)
    I2C3_ER_IRQHandler                       0x080101c3   Thumb Code     0  startup_stm32f401xx.o(.text)
    I2C3_EV_IRQHandler                       0x080101c3   Thumb Code     0  startup_stm32f401xx.o(.text)
    OTG_FS_IRQHandler                        0x080101c3   Thumb Code     0  startup_stm32f401xx.o(.text)
    OTG_FS_WKUP_IRQHandler                   0x080101c3   Thumb Code     0  startup_stm32f401xx.o(.text)
    PVD_IRQHandler                           0x080101c3   Thumb Code     0  startup_stm32f401xx.o(.text)
    RCC_IRQHandler                           0x080101c3   Thumb Code     0  startup_stm32f401xx.o(.text)
    RTC_Alarm_IRQHandler                     0x080101c3   Thumb Code     0  startup_stm32f401xx.o(.text)
    RTC_WKUP_IRQHandler                      0x080101c3   Thumb Code     0  startup_stm32f401xx.o(.text)
    SDIO_IRQHandler                          0x080101c3   Thumb Code     0  startup_stm32f401xx.o(.text)
    SPI1_IRQHandler                          0x080101c3   Thumb Code     0  startup_stm32f401xx.o(.text)
    SPI2_IRQHandler                          0x080101c3   Thumb Code     0  startup_stm32f401xx.o(.text)
    SPI3_IRQHandler                          0x080101c3   Thumb Code     0  startup_stm32f401xx.o(.text)
    SPI4_IRQHandler                          0x080101c3   Thumb Code     0  startup_stm32f401xx.o(.text)
    TAMP_STAMP_IRQHandler                    0x080101c3   Thumb Code     0  startup_stm32f401xx.o(.text)
    TIM1_BRK_TIM9_IRQHandler                 0x080101c3   Thumb Code     0  startup_stm32f401xx.o(.text)
    TIM1_CC_IRQHandler                       0x080101c3   Thumb Code     0  startup_stm32f401xx.o(.text)
    TIM1_TRG_COM_TIM11_IRQHandler            0x080101c3   Thumb Code     0  startup_stm32f401xx.o(.text)
    TIM1_UP_TIM10_IRQHandler                 0x080101c3   Thumb Code     0  startup_stm32f401xx.o(.text)
    TIM4_IRQHandler                          0x080101c3   Thumb Code     0  startup_stm32f401xx.o(.text)
    TIM5_IRQHandler                          0x080101c3   Thumb Code     0  startup_stm32f401xx.o(.text)
    WWDG_IRQHandler                          0x080101c3   Thumb Code     0  startup_stm32f401xx.o(.text)
    Read_US                                  0x080101cd   Thumb Code   162  alpu-c-0ff.o(.text)
    dec_not                                  0x0801026f   Thumb Code    52  alpu-c-0ff.o(.text)
    dec_xor                                  0x080102a3   Thumb Code    56  alpu-c-0ff.o(.text)
    dec_sft_L                                0x080102db   Thumb Code    46  alpu-c-0ff.o(.text)
    dec_sft_R                                0x08010309   Thumb Code    46  alpu-c-0ff.o(.text)
    alpu_dec                                 0x08010337   Thumb Code   398  alpu-c-0ff.o(.text)
    alpu_EDR                                 0x080104c5   Thumb Code   202  alpu-c-0ff.o(.text)
    alpu_CERTI                               0x0801058f   Thumb Code   202  alpu-c-0ff.o(.text)
    alpuc_process                            0x08010659   Thumb Code   536  alpu-c-0ff.o(.text)
    __aeabi_uldivmod                         0x08010881   Thumb Code    98  uldiv.o(.text)
    rand                                     0x080108e5   Thumb Code    20  rand.o(.text)
    srand                                    0x080108f9   Thumb Code     6  rand.o(.text)
    __aeabi_memcpy                           0x08010909   Thumb Code    36  memcpya.o(.text)
    __aeabi_memcpy4                          0x08010909   Thumb Code     0  memcpya.o(.text)
    __aeabi_memcpy8                          0x08010909   Thumb Code     0  memcpya.o(.text)
    __aeabi_memset                           0x0801092d   Thumb Code    14  memseta.o(.text)
    __aeabi_memset4                          0x0801092d   Thumb Code     0  memseta.o(.text)
    __aeabi_memset8                          0x0801092d   Thumb Code     0  memseta.o(.text)
    __aeabi_memclr                           0x0801093b   Thumb Code     4  memseta.o(.text)
    __aeabi_memclr4                          0x0801093b   Thumb Code     0  memseta.o(.text)
    __aeabi_memclr8                          0x0801093b   Thumb Code     0  memseta.o(.text)
    _memset$wrapper                          0x0801093f   Thumb Code    18  memseta.o(.text)
    strcmp                                   0x08010951   Thumb Code    28  strcmp.o(.text)
    atoi                                     0x0801096d   Thumb Code    26  atoi.o(.text)
    __aeabi_dadd                             0x08010987   Thumb Code   322  dadd.o(.text)
    __aeabi_dsub                             0x08010ac9   Thumb Code     6  dadd.o(.text)
    __aeabi_drsub                            0x08010acf   Thumb Code     6  dadd.o(.text)
    __aeabi_dmul                             0x08010ad5   Thumb Code   228  dmul.o(.text)
    __aeabi_ddiv                             0x08010bb9   Thumb Code   222  ddiv.o(.text)
    __aeabi_i2d                              0x08010c97   Thumb Code    34  dflti.o(.text)
    __aeabi_ui2d                             0x08010cb9   Thumb Code    26  dfltui.o(.text)
    __aeabi_d2iz                             0x08010cd3   Thumb Code    62  dfixi.o(.text)
    __aeabi_d2uiz                            0x08010d11   Thumb Code    50  dfixui.o(.text)
    __aeabi_d2ulz                            0x08010d43   Thumb Code    48  dfixul.o(.text)
    __aeabi_f2d                              0x08010d73   Thumb Code    38  f2d.o(.text)
    __aeabi_cdcmpeq                          0x08010d99   Thumb Code     0  cdcmple.o(.text)
    __aeabi_cdcmple                          0x08010d99   Thumb Code    48  cdcmple.o(.text)
    __aeabi_cdrcmple                         0x08010dc9   Thumb Code    48  cdrcmple.o(.text)
    __aeabi_d2f                              0x08010df9   Thumb Code    56  d2f.o(.text)
    __aeabi_llsl                             0x08010e31   Thumb Code    30  llshl.o(.text)
    _ll_shift_l                              0x08010e31   Thumb Code     0  llshl.o(.text)
    __aeabi_llsr                             0x08010e4f   Thumb Code    32  llushr.o(.text)
    _ll_ushift_r                             0x08010e4f   Thumb Code     0  llushr.o(.text)
    __aeabi_lasr                             0x08010e6f   Thumb Code    36  llsshr.o(.text)
    _ll_sshift_r                             0x08010e6f   Thumb Code     0  llsshr.o(.text)
    __strtod_int                             0x08010ecb   Thumb Code    88  strtod.o(.text)
    strtol                                   0x08010f31   Thumb Code   112  strtol.o(.text)
    __I$use$fp                               0x08010fa1   Thumb Code     0  iusefp.o(.text)
    _float_round                             0x08010fa1   Thumb Code    18  fepilogue.o(.text)
    _float_epilogue                          0x08010fb3   Thumb Code    92  fepilogue.o(.text)
    _double_round                            0x0801100f   Thumb Code    30  depilogue.o(.text)
    _double_epilogue                         0x0801102d   Thumb Code   156  depilogue.o(.text)
    _dsqrt                                   0x080110c9   Thumb Code   162  dsqrt.o(.text)
    __scatterload                            0x0801116d   Thumb Code    28  init.o(.text)
    __scatterload_rt2                        0x0801116d   Thumb Code     0  init.o(.text)
    __rt_ctype_table                         0x08011191   Thumb Code     4  ctype_o.o(.text)
    isspace                                  0x08011199   Thumb Code    18  isspace_o.o(.text)
    _scanf_real                              0x080112ad   Thumb Code     0  scanf_fp.o(.text)
    _scanf_really_real                       0x080112ad   Thumb Code   556  scanf_fp.o(.text)
    _sgetc                                   0x080114e5   Thumb Code    30  _sgetc.o(.text)
    _sbackspace                              0x08011503   Thumb Code    34  _sgetc.o(.text)
    _strtoul                                 0x08011525   Thumb Code   158  _strtoul.o(.text)
    _chval                                   0x080115c3   Thumb Code    28  _chval.o(.text)
    __aeabi_ul2d                             0x080115df   Thumb Code    24  dfltul.o(.text)
    __decompress                             0x080115f7   Thumb Code     0  __dczerorl2.o(.text)
    __decompress1                            0x080115f7   Thumb Code    86  __dczerorl2.o(.text)
    Acc_Ini                                  0x0801164d   Thumb Code   120  getacc.o(i.Acc_Ini)
    AddMtxMt                                 0x080116ed   Thumb Code   432  basicfunc.o(i.AddMtxMt)
    AddMxMt                                  0x0801189d   Thumb Code   432  basicfunc.o(i.AddMxMt)
    AddMxMtxMt                               0x08011a4d   Thumb Code   604  basicfunc.o(i.AddMxMtxMt)
    AddMxMxMt                                0x08011cb1   Thumb Code   604  basicfunc.o(i.AddMxMxMt)
    Addequal                                 0x08011f15   Thumb Code   290  basicfunc.o(i.Addequal)
    Analyse_GpsData                          0x08012039   Thumb Code  2028  getnass.o(i.Analyse_GpsData)
    ApluCode                                 0x0801287d   Thumb Code    98  main.o(i.ApluCode)
    BMI160_Ini                               0x080128ed   Thumb Code   300  getacc.o(i.BMI160_Ini)
    Buftodouble                              0x08012a21   Thumb Code    42  stmflash.o(i.Buftodouble)
    CM2Euler                                 0x08012a55   Thumb Code   354  basicfunc.o(i.CM2Euler)
    CMRotation                               0x08012bd1   Thumb Code   450  basicfunc.o(i.CMRotation)
    ChangeGstDeta                            0x08012d95   Thumb Code   492  gifilter.o(i.ChangeGstDeta)
    Change_SensorData                        0x08012fa1   Thumb Code   200  getimu.o(i.Change_SensorData)
    Change_Time                              0x08013071   Thumb Code   108  getimu.o(i.Change_Time)
    Check_Lock_Code                          0x080130e5   Thumb Code   146  encryptid.o(i.Check_Lock_Code)
    Checkout_2Pi                             0x0801318d   Thumb Code    92  getacc.o(i.Checkout_2Pi)
    Checkout_PGyr                            0x080131ed   Thumb Code    48  getgyr.o(i.Checkout_PGyr)
    Checkout_Pi                              0x08013229   Thumb Code    60  getacc.o(i.Checkout_Pi)
    Checkout_RGyr                            0x08013269   Thumb Code    48  getgyr.o(i.Checkout_RGyr)
    Checkout_YGyr                            0x080132a5   Thumb Code    48  getgyr.o(i.Checkout_YGyr)
    Checkout_a2g                             0x080132e1   Thumb Code    46  getacc.o(i.Checkout_a2g)
    Checkout_p2g                             0x08013319   Thumb Code    46  getacc.o(i.Checkout_p2g)
    Checkout_r2g                             0x08013351   Thumb Code    46  getacc.o(i.Checkout_r2g)
    Com2SendData                             0x08013389   Thumb Code    50  commdata.o(i.Com2SendData)
    Command_Handle                           0x080133d1   Thumb Code   630  commdata.o(i.Command_Handle)
    ConfirmHeading                           0x080136cd   Thumb Code   658  insalign.o(i.ConfirmHeading)
    Convert_Acc_Data                         0x080139a9   Thumb Code    36  getacc.o(i.Convert_Acc_Data)
    ConvertorGyrData                         0x080139cd   Thumb Code    86  getgyr.o(i.ConvertorGyrData)
    ConvertorPAcc                            0x08013a29   Thumb Code    96  getacc.o(i.ConvertorPAcc)
    ConvertorPAngle                          0x08013a95   Thumb Code   112  getacc.o(i.ConvertorPAngle)
    ConvertorRAcc                            0x08013b0d   Thumb Code   106  getacc.o(i.ConvertorRAcc)
    ConvertorRAngle                          0x08013b85   Thumb Code   184  getacc.o(i.ConvertorRAngle)
    ConvertorZAcc                            0x08013c49   Thumb Code   106  getacc.o(i.ConvertorZAcc)
    CoordChangeA                             0x08013cc1   Thumb Code   492  getacc.o(i.CoordChangeA)
    CoordChangeG                             0x08013ec9   Thumb Code   492  getgyr.o(i.CoordChangeG)
    DMA2_Stream7_IRQHandler                  0x080140d1   Thumb Code    38  stm32f4xx_it.o(i.DMA2_Stream7_IRQHandler)
    DMA_ClearFlag                            0x080140fd   Thumb Code    38  stm32f4xx_dma.o(i.DMA_ClearFlag)
    DMA_Cmd                                  0x08014131   Thumb Code    22  stm32f4xx_dma.o(i.DMA_Cmd)
    DMA_DeInit                               0x08014149   Thumb Code   324  stm32f4xx_dma.o(i.DMA_DeInit)
    DMA_Finish                               0x080142a1   Thumb Code    88  stm32f4xx_it.o(i.DMA_Finish)
    DMA_GetCmdStatus                         0x0801431d   Thumb Code    20  stm32f4xx_dma.o(i.DMA_GetCmdStatus)
    DMA_GetFlagStatus                        0x08014331   Thumb Code    54  stm32f4xx_dma.o(i.DMA_GetFlagStatus)
    DMA_ITConfig                             0x08014375   Thumb Code    58  stm32f4xx_dma.o(i.DMA_ITConfig)
    DMA_Init                                 0x080143b1   Thumb Code    82  stm32f4xx_dma.o(i.DMA_Init)
    DataJudge                                0x08014409   Thumb Code    56  getgps.o(i.DataJudge)
    DataProcerInit                           0x08014441   Thumb Code    30  dataproc.o(i.DataProcerInit)
    Data_Flash_Decode                        0x08014471   Thumb Code    18  stmflash.o(i.Data_Flash_Decode)
    Data_Flash_Save                          0x0801448d   Thumb Code   114  stmflash.o(i.Data_Flash_Save)
    Data_Ini                                 0x0801451d   Thumb Code   210  main.o(i.Data_Ini)
    Data_Synch                               0x08014689   Thumb Code    48  getimu.o(i.Data_Synch)
    DynamicModeIdentify                      0x080146d1   Thumb Code  1356  insnav.o(i.DynamicModeIdentify)
    EEPROM_Check                             0x08014c31   Thumb Code    52  eeprom.o(i.EEPROM_Check)
    EEPROM_ReadOneByte                       0x08014c65   Thumb Code    92  eeprom.o(i.EEPROM_ReadOneByte)
    EEPROM_Write                             0x08014cc1   Thumb Code    36  eeprom.o(i.EEPROM_Write)
    EEPROM_WriteOneByte                      0x08014ce5   Thumb Code    84  eeprom.o(i.EEPROM_WriteOneByte)
    EXTI0_IRQHandler                         0x08014d39   Thumb Code    54  stm32f4xx_it.o(i.EXTI0_IRQHandler)
    EXTI15_10_IRQHandler                     0x08014d79   Thumb Code    38  stm32f4xx_it.o(i.EXTI15_10_IRQHandler)
    EXTIX_Init                               0x08014d9f   Thumb Code    40  hw_config.o(i.EXTIX_Init)
    EXTI_ClearITPendingBit                   0x08014dc9   Thumb Code     6  stm32f4xx_exti.o(i.EXTI_ClearITPendingBit)
    EXTI_GetITStatus                         0x08014dd5   Thumb Code    20  stm32f4xx_exti.o(i.EXTI_GetITStatus)
    EXTI_Init                                0x08014ded   Thumb Code   142  stm32f4xx_exti.o(i.EXTI_Init)
    Euler2Quat                               0x08014e81   Thumb Code   636  basicfunc.o(i.Euler2Quat)
    FLASH_DataCacheCmd                       0x08015105   Thumb Code    30  stm32f4xx_flash.o(i.FLASH_DataCacheCmd)
    FLASH_EraseSector                        0x08015129   Thumb Code   130  stm32f4xx_flash.o(i.FLASH_EraseSector)
    FLASH_GetStatus                          0x080151b1   Thumb Code    80  stm32f4xx_flash.o(i.FLASH_GetStatus)
    FLASH_Lock                               0x08015205   Thumb Code    14  stm32f4xx_flash.o(i.FLASH_Lock)
    FLASH_ProgramWord                        0x08015219   Thumb Code    74  stm32f4xx_flash.o(i.FLASH_ProgramWord)
    FLASH_Unlock                             0x08015269   Thumb Code    24  stm32f4xx_flash.o(i.FLASH_Unlock)
    FLASH_WaitForLastOperation               0x0801528d   Thumb Code    34  stm32f4xx_flash.o(i.FLASH_WaitForLastOperation)
    Flag_Clear                               0x080152b1   Thumb Code    48  getgps.o(i.Flag_Clear)
    GIKFBatchSolution                        0x0801530d   Thumb Code  1754  gifilter.o(i.GIKFBatchSolution)
    GIKFCalcPHIMatrix                        0x080159f1   Thumb Code  1624  gifilter.o(i.GIKFCalcPHIMatrix)
    GIKFCheckGIResult                        0x08016055   Thumb Code  1168  gifilter.o(i.GIKFCheckGIResult)
    GIKFCheckPMatrix                         0x080164f1   Thumb Code   958  gifilter.o(i.GIKFCheckPMatrix)
    GIKFINSErrorFix                          0x080168c5   Thumb Code  1632  gifilter.o(i.GIKFINSErrorFix)
    GIKFInit                                 0x08016f31   Thumb Code   108  gifilter.o(i.GIKFInit)
    GIKFInitPMatrix                          0x08016fb1   Thumb Code    96  gifilter.o(i.GIKFInitPMatrix)
    GIKFModularizePMatrix                    0x08017045   Thumb Code    82  gifilter.o(i.GIKFModularizePMatrix)
    GIKFPredictPMatrix                       0x0801709d   Thumb Code  2002  gifilter.o(i.GIKFPredictPMatrix)
    GIKFUpdateByGNSS                         0x08017885   Thumb Code  1512  gifilter.o(i.GIKFUpdateByGNSS)
    GINavInit                                0x08017eb1   Thumb Code  1184  ginavmain.o(i.GINavInit)
    GINavProc                                0x08018355   Thumb Code  2844  ginavmain.o(i.GINavProc)
    GPIO_Configuration                       0x08018ea9   Thumb Code   418  hw_config.o(i.GPIO_Configuration)
    GPIO_Init                                0x08019055   Thumb Code   144  stm32f4xx_gpio.o(i.GPIO_Init)
    GPIO_PinAFConfig                         0x080190e5   Thumb Code    70  stm32f4xx_gpio.o(i.GPIO_PinAFConfig)
    GPIO_ResetBits                           0x0801912b   Thumb Code     4  stm32f4xx_gpio.o(i.GPIO_ResetBits)
    GPIO_SetBits                             0x0801912f   Thumb Code     4  stm32f4xx_gpio.o(i.GPIO_SetBits)
    GPS_Rate_Config                          0x08019135   Thumb Code    32  getgps.o(i.GPS_Rate_Config)
    GetAngle                                 0x08019159   Thumb Code  1756  sendgps.o(i.GetAngle)
    GetAngleDis                              0x08019871   Thumb Code  1622  sendgps.o(i.GetAngleDis)
    GetCrcData                               0x08019ef1   Thumb Code    92  commdata.o(i.GetCrcData)
    GetDiffAgeData                           0x08019f51   Thumb Code   136  getnass.o(i.GetDiffAgeData)
    GetField                                 0x08019ff5   Thumb Code   142  getgps.o(i.GetField)
    GetGNSSData                              0x0801a085   Thumb Code    20  dataproc.o(i.GetGNSSData)
    GetGPRMC                                 0x0801a0a1   Thumb Code  2378  sendgps.o(i.GetGPRMC)
    GetGPVTG                                 0x0801aa05   Thumb Code  1648  sendgps.o(i.GetGPVTG)
    GetGPZDA                                 0x0801b095   Thumb Code   922  sendgps.o(i.GetGPZDA)
    GetIMUData                               0x0801b449   Thumb Code    20  dataproc.o(i.GetIMUData)
    GetLGPGGA                                0x0801b465   Thumb Code  2660  sendgps.o(i.GetLGPGGA)
    GetLocalGravity                          0x0801bedd   Thumb Code   276  basicfunc.o(i.GetLocalGravity)
    GetNavFrameQuat                          0x0801c029   Thumb Code   328  basicfunc.o(i.GetNavFrameQuat)
    GetQMatrix                               0x0801c181   Thumb Code    88  gifilter.o(i.GetQMatrix)
    GetRMCData                               0x0801c205   Thumb Code    66  sendgps.o(i.GetRMCData)
    GetUTCTime                               0x0801c261   Thumb Code   112  getimu.o(i.GetUTCTime)
    Get_Acc_XYZ                              0x0801c2e9   Thumb Code   264  getacc.o(i.Get_Acc_XYZ)
    Get_Angle_XYZ                            0x0801c425   Thumb Code   152  getacc.o(i.Get_Angle_XYZ)
    Get_BMI055_Data                          0x0801c4dd   Thumb Code   118  getimu.o(i.Get_BMI055_Data)
    Get_BMI160A_Data                         0x0801c571   Thumb Code   112  getacc.o(i.Get_BMI160A_Data)
    Get_BMI160G_Data                         0x0801c5e9   Thumb Code   104  getgyr.o(i.Get_BMI160G_Data)
    Get_GGA_RMC_GST                          0x0801c659   Thumb Code   908  getgps.o(i.Get_GGA_RMC_GST)
    Get_GSA_GAV                              0x0801c9f9   Thumb Code   178  getgps.o(i.Get_GSA_GAV)
    Get_RMC_Data                             0x0801cabd   Thumb Code   166  getgps.o(i.Get_RMC_Data)
    Get_Rate_Data                            0x0801cb75   Thumb Code   190  getgyr.o(i.Get_Rate_Data)
    Get_Yaw_Data                             0x0801cc71   Thumb Code   138  getgyr.o(i.Get_Yaw_Data)
    GnssEvaluation                           0x0801cd1d   Thumb Code  4796  gnss.o(i.GnssEvaluation)
    GpsBautConfig                            0x0801dfe9   Thumb Code    42  getgps.o(i.GpsBautConfig)
    GpsConfig2                               0x0801e019   Thumb Code  1698  getgps.o(i.GpsConfig2)
    GpsGLOpen                                0x0801e6f9   Thumb Code   142  getgps.o(i.GpsGLOpen)
    GpsGsvClose                              0x0801e7e1   Thumb Code   200  getgps.o(i.GpsGsvClose)
    GpsGsvOpen                               0x0801e931   Thumb Code   200  getgps.o(i.GpsGsvOpen)
    Gps_Receive_Handle                       0x0801ea81   Thumb Code   144  getgps.o(i.Gps_Receive_Handle)
    Gyr_Ini                                  0x0801eb39   Thumb Code    30  getgyr.o(i.Gyr_Ini)
    HandleCompensate                         0x0801eb71   Thumb Code   254  insnav.o(i.HandleCompensate)
    HandleGGAOn                              0x0801ec81   Thumb Code   602  getgps.o(i.HandleGGAOn)
    HandleGpsData                            0x0801ef21   Thumb Code    22  getgps.o(i.HandleGpsData)
    HandleGpsIni                             0x0801ef39   Thumb Code    32  getgps.o(i.HandleGpsIni)
    HandleKeyOn                              0x0801ef69   Thumb Code  3852  commdata.o(i.HandleKeyOn)
    HandlePassOn                             0x0801fec1   Thumb Code   214  commdata.o(i.HandlePassOn)
    HandleUpdata                             0x0801ffb1   Thumb Code   162  commdata.o(i.HandleUpdata)
    HandleUserData                           0x08020071   Thumb Code    84  commdata.o(i.HandleUserData)
    Handle_Ini                               0x080200d9   Thumb Code    74  stm32f4xx_it.o(i.Handle_Ini)
    I2C_Configuration                        0x08020161   Thumb Code     8  hw_config.o(i.I2C_Configuration)
    IIC_Ack                                  0x08020169   Thumb Code    66  myiic.o(i.IIC_Ack)
    IIC_Init                                 0x080201bd   Thumb Code    94  myiic.o(i.IIC_Init)
    IIC_NAck                                 0x0802022d   Thumb Code    66  myiic.o(i.IIC_NAck)
    IIC_Read_Byte                            0x08020281   Thumb Code    92  myiic.o(i.IIC_Read_Byte)
    IIC_Send_Byte                            0x080202ed   Thumb Code    88  myiic.o(i.IIC_Send_Byte)
    IIC_Start                                0x08020355   Thumb Code    72  myiic.o(i.IIC_Start)
    IIC_Stop                                 0x080203a9   Thumb Code    78  myiic.o(i.IIC_Stop)
    IIC_Wait_Ack                             0x08020405   Thumb Code    84  myiic.o(i.IIC_Wait_Ack)
    IMDAT_Deal                               0x08020469   Thumb Code   162  getimu.o(i.IMDAT_Deal)
    IMUCompensate                            0x08020519   Thumb Code   456  insnav.o(i.IMUCompensate)
    IMUData_Deal                             0x08020701   Thumb Code   836  getimu.o(i.IMUData_Deal)
    IMU_ALL_DMA                              0x08020a5d   Thumb Code   256  getimu.o(i.IMU_ALL_DMA)
    INSAlign                                 0x08020b79   Thumb Code  3654  insalign.o(i.INSAlign)
    INSUpdate                                0x080219d1   Thumb Code 16564  insnav.o(i.INSUpdate)
    IWDG_ReloadCounter                       0x08025a8d   Thumb Code    10  stm32f4xx_iwdg.o(i.IWDG_ReloadCounter)
    InitGyroBias                             0x08025a9d   Thumb Code   626  insalign.o(i.InitGyroBias)
    InitInstallMat                           0x08025d2d   Thumb Code  5440  insnav.o(i.InitInstallMat)
    Interrupt_Any_motion                     0x0802726d   Thumb Code   256  getacc.o(i.Interrupt_Any_motion)
    Message_Ack_handle                       0x08027371   Thumb Code   272  stm32f4xx_it.o(i.Message_Ack_handle)
    MisAngle_Flash_Decode                    0x080274c1   Thumb Code   506  stmflash.o(i.MisAngle_Flash_Decode)
    MisAngle_Flash_INI                       0x08027705   Thumb Code   468  stmflash.o(i.MisAngle_Flash_INI)
    MisAngle_Flash_Save                      0x0802791d   Thumb Code   116  stmflash.o(i.MisAngle_Flash_Save)
    NVIC_Configuration                       0x080279b1   Thumb Code   228  hw_config.o(i.NVIC_Configuration)
    NVIC_ConfigurationDis                    0x08027a95   Thumb Code   160  hw_config.o(i.NVIC_ConfigurationDis)
    NVIC_Init                                0x08027b35   Thumb Code   106  misc.o(i.NVIC_Init)
    NVIC_PriorityGroupConfig                 0x08027bad   Thumb Code    10  misc.o(i.NVIC_PriorityGroupConfig)
    NVIC_SetVectorTable                      0x08027bc1   Thumb Code    12  misc.o(i.NVIC_SetVectorTable)
    NormQuat                                 0x08027bd5   Thumb Code   358  basicfunc.o(i.NormQuat)
    PWR_ClearFlag                            0x08027d4d   Thumb Code    14  stm32f4xx_pwr.o(i.PWR_ClearFlag)
    PWR_EnterSTANDBYMode                     0x08027d61   Thumb Code    32  stm32f4xx_pwr.o(i.PWR_EnterSTANDBYMode)
    PWR_EnterSTOPMode                        0x08027d89   Thumb Code    58  stm32f4xx_pwr.o(i.PWR_EnterSTOPMode)
    PWR_WakeUpPinCmd                         0x08027dcd   Thumb Code     6  stm32f4xx_pwr.o(i.PWR_WakeUpPinCmd)
    Pack_GnssData                            0x08027dd9   Thumb Code    78  sendgps.o(i.Pack_GnssData)
    Pack_IMUData                             0x08027e41   Thumb Code   590  getimu.o(i.Pack_IMUData)
    Pack_Send_Debug                          0x080280f1   Thumb Code   170  sendgps.o(i.Pack_Send_Debug)
    Para_Data_Protection                     0x080281cd   Thumb Code   354  stmflash.o(i.Para_Data_Protection)
    Para_Flash_Decode                        0x08028385   Thumb Code   158  stmflash.o(i.Para_Flash_Decode)
    Para_Flash_INI                           0x08028465   Thumb Code   134  stmflash.o(i.Para_Flash_INI)
    ProcessAgeTOA                            0x0802852d   Thumb Code   216  sendgps.o(i.ProcessAgeTOA)
    ProcessCheckIMU                          0x08028611   Thumb Code    58  getimu.o(i.ProcessCheckIMU)
    ProcessCheckResult                       0x08028659   Thumb Code    60  sendgps.o(i.ProcessCheckResult)
    ProcessCheckToA                          0x080286a1   Thumb Code   108  sendgps.o(i.ProcessCheckToA)
    ProcessCheckToAIMU                       0x08028715   Thumb Code   108  getimu.o(i.ProcessCheckToAIMU)
    ProcessCommand                           0x08028789   Thumb Code   630  getgps.o(i.ProcessCommand)
    ProcessGPGGA                             0x08028af5   Thumb Code  1100  getgps.o(i.ProcessGPGGA)
    ProcessGPGSA                             0x08028f41   Thumb Code   274  getgps.o(i.ProcessGPGSA)
    ProcessGPGST                             0x08029069   Thumb Code   220  getgps.o(i.ProcessGPGST)
    ProcessGPGSV                             0x08029151   Thumb Code   318  getgps.o(i.ProcessGPGSV)
    ProcessGPRMC                             0x080292b1   Thumb Code  1088  getgps.o(i.ProcessGPRMC)
    ProcessGPVTG                             0x080296f1   Thumb Code   402  getgps.o(i.ProcessGPVTG)
    ProcessGPZDA                             0x08029899   Thumb Code   402  getgps.o(i.ProcessGPZDA)
    ProcessIITOA                             0x08029a31   Thumb Code   164  sendgps.o(i.ProcessIITOA)
    ProcessITOA                              0x08029add   Thumb Code    70  sendgps.o(i.ProcessITOA)
    ProcessITOAH                             0x08029b2d   Thumb Code    70  getimu.o(i.ProcessITOAH)
    ProcessITOAM                             0x08029b7d   Thumb Code   108  getimu.o(i.ProcessITOAM)
    ProcessLatToA                            0x08029bf1   Thumb Code   622  sendgps.o(i.ProcessLatToA)
    ProcessLongToA                           0x08029e8d   Thumb Code   650  sendgps.o(i.ProcessLongToA)
    ProcessNMEA                              0x0802a141   Thumb Code   366  getgps.o(i.ProcessNMEA)
    ProcessSFTOA                             0x0802a2c9   Thumb Code  2346  sendgps.o(i.ProcessSFTOA)
    ProcessSSFTOA                            0x0802ac05   Thumb Code  2436  sendgps.o(i.ProcessSSFTOA)
    ProcessVTOA                              0x0802b591   Thumb Code   164  commdata.o(i.ProcessVTOA)
    ProcessZLSFTOA                           0x0802b63d   Thumb Code   990  sendgps.o(i.ProcessZLSFTOA)
    Quat2CM                                  0x0802ba3d   Thumb Code   844  basicfunc.o(i.Quat2CM)
    QuatMulti                                0x0802bd91   Thumb Code   928  basicfunc.o(i.QuatMulti)
    RCC_AHB1PeriphClockCmd                   0x0802c139   Thumb Code    26  stm32f4xx_rcc.o(i.RCC_AHB1PeriphClockCmd)
    RCC_APB1PeriphClockCmd                   0x0802c159   Thumb Code    26  stm32f4xx_rcc.o(i.RCC_APB1PeriphClockCmd)
    RCC_APB2PeriphClockCmd                   0x0802c179   Thumb Code    26  stm32f4xx_rcc.o(i.RCC_APB2PeriphClockCmd)
    RCC_Configuration                        0x0802c199   Thumb Code    42  hw_config.o(i.RCC_Configuration)
    RCC_GetClocksFreq                        0x0802c1c9   Thumb Code   214  stm32f4xx_rcc.o(i.RCC_GetClocksFreq)
    RotVec2Quat                              0x0802c2b1   Thumb Code   924  basicfunc.o(i.RotVec2Quat)
    SPI_ADS_SendData                         0x0802c69d   Thumb Code    54  spi.o(i.SPI_ADS_SendData)
    SPI_Cmd                                  0x0802c6d9   Thumb Code    24  stm32f4xx_spi.o(i.SPI_Cmd)
    SPI_Configuration                        0x0802c6f1   Thumb Code    80  hw_config.o(i.SPI_Configuration)
    SPI_I2S_GetFlagStatus                    0x0802c745   Thumb Code    18  stm32f4xx_spi.o(i.SPI_I2S_GetFlagStatus)
    SPI_I2S_ReceiveData                      0x0802c757   Thumb Code     6  stm32f4xx_spi.o(i.SPI_I2S_ReceiveData)
    SPI_I2S_SendData                         0x0802c75d   Thumb Code     4  stm32f4xx_spi.o(i.SPI_I2S_SendData)
    SPI_Init                                 0x0802c761   Thumb Code    60  stm32f4xx_spi.o(i.SPI_Init)
    STMFLASH_GetFlashSector                  0x0802c79d   Thumb Code   116  stmflash.o(i.STMFLASH_GetFlashSector)
    STMFLASH_Read                            0x0802c83d   Thumb Code    32  stmflash.o(i.STMFLASH_Read)
    STMFLASH_ReadWord                        0x0802c85d   Thumb Code     6  stmflash.o(i.STMFLASH_ReadWord)
    STMFLASH_Write                           0x0802c865   Thumb Code   162  stmflash.o(i.STMFLASH_Write)
    SYSCFG_EXTILineConfig                    0x0802c915   Thumb Code    60  stm32f4xx_syscfg.o(i.SYSCFG_EXTILineConfig)
    SaveGpsData                              0x0802c955   Thumb Code    54  getgps.o(i.SaveGpsData)
    Save_ALLIMUData                          0x0802c995   Thumb Code   224  getimu.o(i.Save_ALLIMUData)
    Save_DATData                             0x0802ca89   Thumb Code   150  getimu.o(i.Save_DATData)
    Save_IMUData                             0x0802cb41   Thumb Code   170  getimu.o(i.Save_IMUData)
    SendConfigMessage                        0x0802cc1d   Thumb Code  1748  getgps.o(i.SendConfigMessage)
    SendData                                 0x0802d301   Thumb Code  1202  commdata.o(i.SendData)
    SendDriver                               0x0802d7b9   Thumb Code    20  hw_config.o(i.SendDriver)
    SendText                                 0x0802d7d5   Thumb Code   136  commdata.o(i.SendText)
    SendVersion                              0x0802d875   Thumb Code   474  commdata.o(i.SendVersion)
    Send_GPSData                             0x0802dc2d   Thumb Code    54  getgps.o(i.Send_GPSData)
    Send_GSAData                             0x0802dc7d   Thumb Code    70  sendgps.o(i.Send_GSAData)
    Send_GnssData                            0x0802dce1   Thumb Code   158  sendgps.o(i.Send_GnssData)
    Send_IMUData                             0x0802ddb5   Thumb Code   358  getimu.o(i.Send_IMUData)
    SerialPutChar                            0x0802df55   Thumb Code    60  commdata.o(i.SerialPutChar)
    Serial_PutString                         0x0802df9d   Thumb Code    22  commdata.o(i.Serial_PutString)
    Set_System                               0x0802e09d   Thumb Code    38  hw_config.o(i.Set_System)
    SigmaJudge                               0x0802e0c9   Thumb Code   102  gifilter.o(i.SigmaJudge)
    SoftReset                                0x0802e141   Thumb Code    42  stmflash.o(i.SoftReset)
    SysTick_CLKSourceConfig                  0x0802e175   Thumb Code    40  misc.o(i.SysTick_CLKSourceConfig)
    SystemInit                               0x0802e19d   Thumb Code    88  system_stm32f4xx.o(i.SystemInit)
    TIM2_IRQHandler                          0x0802e205   Thumb Code    46  stm32f4xx_it.o(i.TIM2_IRQHandler)
    TIM3_Configuration                       0x0802e239   Thumb Code   150  hw_config.o(i.TIM3_Configuration)
    TIM3_IRQHandler                          0x0802e2d9   Thumb Code   140  stm32f4xx_it.o(i.TIM3_IRQHandler)
    TIM_ClearITPendingBit                    0x0802e389   Thumb Code     6  stm32f4xx_tim.o(i.TIM_ClearITPendingBit)
    TIM_Cmd                                  0x0802e38f   Thumb Code    24  stm32f4xx_tim.o(i.TIM_Cmd)
    TIM_ITConfig                             0x0802e3a7   Thumb Code    18  stm32f4xx_tim.o(i.TIM_ITConfig)
    TIM_TimeBaseInit                         0x0802e3b9   Thumb Code   104  stm32f4xx_tim.o(i.TIM_TimeBaseInit)
    TriangleMatInv                           0x0802e43d   Thumb Code   374  basicfunc.o(i.TriangleMatInv)
    USART1_IRQHandler                        0x0802e5c1   Thumb Code    44  stm32f4xx_it.o(i.USART1_IRQHandler)
    USART2_IRQHandler                        0x0802e5f5   Thumb Code    52  stm32f4xx_it.o(i.USART2_IRQHandler)
    USART6_IRQHandler                        0x0802e631   Thumb Code    36  stm32f4xx_it.o(i.USART6_IRQHandler)
    USART_ClearFlag                          0x0802e65d   Thumb Code    18  stm32f4xx_usart.o(i.USART_ClearFlag)
    USART_ClearITPendingBit                  0x0802e66f   Thumb Code    30  stm32f4xx_usart.o(i.USART_ClearITPendingBit)
    USART_Cmd                                0x0802e68d   Thumb Code    24  stm32f4xx_usart.o(i.USART_Cmd)
    USART_Configuration                      0x0802e6a5   Thumb Code   274  hw_config.o(i.USART_Configuration)
    USART_DMACmd                             0x0802e7d5   Thumb Code    18  stm32f4xx_usart.o(i.USART_DMACmd)
    USART_DMA_TX_Configuration               0x0802e7e9   Thumb Code   118  hw_config.o(i.USART_DMA_TX_Configuration)
    USART_GetFlagStatus                      0x0802e86d   Thumb Code    26  stm32f4xx_usart.o(i.USART_GetFlagStatus)
    USART_GetITStatus                        0x0802e887   Thumb Code    84  stm32f4xx_usart.o(i.USART_GetITStatus)
    USART_ITConfig                           0x0802e8db   Thumb Code    74  stm32f4xx_usart.o(i.USART_ITConfig)
    USART_Init                               0x0802e925   Thumb Code   204  stm32f4xx_usart.o(i.USART_Init)
    USART_ReceiveData                        0x0802e9f9   Thumb Code    10  stm32f4xx_usart.o(i.USART_ReceiveData)
    USART_SendData                           0x0802ea03   Thumb Code     8  stm32f4xx_usart.o(i.USART_SendData)
    Update_Flash_INI                         0x0802ea0d   Thumb Code    16  stmflash.o(i.Update_Flash_INI)
    Update_Flash_Save                        0x0802ea29   Thumb Code    74  stmflash.o(i.Update_Flash_Save)
    __ARM_fpclassify                         0x0802ea8d   Thumb Code    48  fpclassify.o(i.__ARM_fpclassify)
    __aeabi_errno_addr                       0x0802eabd   Thumb Code     4  errno.o(i.__aeabi_errno_addr)
    __rt_errno_addr                          0x0802eabd   Thumb Code     0  errno.o(i.__aeabi_errno_addr)
    __hardfp_asin                            0x0802eac9   Thumb Code   770  asin.o(i.__hardfp_asin)
    __hardfp_atan                            0x0802ee29   Thumb Code   622  atan.o(i.__hardfp_atan)
    __hardfp_atan2                           0x0802f101   Thumb Code   432  atan2.o(i.__hardfp_atan2)
    __hardfp_atof                            0x0802f2f1   Thumb Code    44  atof.o(i.__hardfp_atof)
    __hardfp_cos                             0x0802f329   Thumb Code   180  cos.o(i.__hardfp_cos)
    __hardfp_fabs                            0x0802f3f1   Thumb Code    20  fabs.o(i.__hardfp_fabs)
    __hardfp_sin                             0x0802f409   Thumb Code   180  sin.o(i.__hardfp_sin)
    __hardfp_sqrt                            0x0802f4d1   Thumb Code   122  sqrt.o(i.__hardfp_sqrt)
    __ieee754_rem_pio2                       0x0802f551   Thumb Code   938  rred.o(i.__ieee754_rem_pio2)
    __kernel_cos                             0x0802f989   Thumb Code   322  cos_i.o(i.__kernel_cos)
    __kernel_poly                            0x0802faf9   Thumb Code   248  poly.o(i.__kernel_poly)
    __kernel_sin                             0x0802fbf1   Thumb Code   280  sin_i.o(i.__kernel_sin)
    __mathlib_dbl_infnan                     0x0802fd21   Thumb Code    20  dunder.o(i.__mathlib_dbl_infnan)
    __mathlib_dbl_infnan2                    0x0802fd35   Thumb Code    20  dunder.o(i.__mathlib_dbl_infnan2)
    __mathlib_dbl_invalid                    0x0802fd49   Thumb Code    24  dunder.o(i.__mathlib_dbl_invalid)
    __mathlib_dbl_underflow                  0x0802fd69   Thumb Code    24  dunder.o(i.__mathlib_dbl_underflow)
    __read_errno                             0x0802fd89   Thumb Code     6  errno.o(i.__read_errno)
    __scatterload_copy                       0x0802fd95   Thumb Code    14  handlers.o(i.__scatterload_copy)
    __scatterload_null                       0x0802fda3   Thumb Code     2  handlers.o(i.__scatterload_null)
    __scatterload_zeroinit                   0x0802fda5   Thumb Code    14  handlers.o(i.__scatterload_zeroinit)
    __set_errno                              0x0802fdb5   Thumb Code     6  errno.o(i.__set_errno)
    _alpu_delay_ms                           0x0802fdc1   Thumb Code    12  24cxx.o(i._alpu_delay_ms)
    _alpu_rand                               0x0802fdcd   Thumb Code    54  24cxx.o(i._alpu_rand)
    _i2c_read                                0x0802fe11   Thumb Code    80  24cxx.o(i._i2c_read)
    _i2c_write                               0x0802fe61   Thumb Code    74  24cxx.o(i._i2c_write)
    _is_digit                                0x0802feab   Thumb Code    14  scanf_fp.o(i._is_digit)
    atan                                     0x0802feb9   Thumb Code    16  atan.o(i.atan)
    delay_init                               0x0802fec9   Thumb Code    52  delay.o(i.delay_init)
    delay_ms                                 0x0802ff05   Thumb Code    56  delay.o(i.delay_ms)
    delay_us                                 0x0802ff3d   Thumb Code    72  delay.o(i.delay_us)
    delay_xms                                0x0802ff89   Thumb Code    72  delay.o(i.delay_xms)
    fabs                                     0x0802ffd5   Thumb Code    24  fabs.o(i.fabs)
    free                                     0x0802ffed   Thumb Code    76  malloc.o(i.free)
    main                                     0x0803003d   Thumb Code   374  main.o(i.main)
    malloc                                   0x080301f5   Thumb Code    92  malloc.o(i.malloc)
    sqrt                                     0x08030261   Thumb Code   110  sqrt.o(i.sqrt)
    TEXT_Buffer                              0x080302ce   Data          10  main.o(.constdata)
    line_start                               0x080302e8   Data          16  gifilter.o(.constdata)
    StaticThd                                0x080302f8   Data          48  insnav.o(.constdata)
    __mathlib_zero                           0x08030440   Data           8  qnan.o(.constdata)
    __ctype_table                            0x08030538   Data         129  ctype_o.o(.constdata)
    Region$$Table$$Base                      0x08030728   Number         0  anon$$obj.o(Region$$Table)
    Region$$Table$$Limit                     0x08030748   Number         0  anon$$obj.o(Region$$Table)
    USART2_BodRate                           0x20000038   Data           4  main.o(.data)
    BMI160A_Rx                               0x2000003c   Data           6  main.o(.data)
    ACC_X                                    0x20000042   Data           2  main.o(.data)
    ACC_Y                                    0x20000044   Data           2  main.o(.data)
    ACC_Z                                    0x20000046   Data           2  main.o(.data)
    XAccBias                                 0x20000048   Data           2  main.o(.data)
    XAccScale                                0x2000004a   Data           2  main.o(.data)
    XAccFScale                               0x2000004c   Data           2  main.o(.data)
    YAccBias                                 0x2000004e   Data           2  main.o(.data)
    YAccScale                                0x20000050   Data           2  main.o(.data)
    YAccFScale                               0x20000052   Data           2  main.o(.data)
    ZAccBias                                 0x20000054   Data           2  main.o(.data)
    ZAccScale                                0x20000056   Data           2  main.o(.data)
    ZAccFScale                               0x20000058   Data           2  main.o(.data)
    floPitchAcc                              0x2000005c   Data           4  main.o(.data)
    floRollAcc                               0x20000060   Data           4  main.o(.data)
    floAliAcc                                0x20000064   Data           4  main.o(.data)
    floPitchAngle                            0x20000068   Data           4  main.o(.data)
    floRollAngle                             0x2000006c   Data           4  main.o(.data)
    intPitchAcc                              0x20000070   Data           2  main.o(.data)
    intRollAcc                               0x20000072   Data           2  main.o(.data)
    intAliAcc                                0x20000074   Data           2  main.o(.data)
    intPitchAngle                            0x20000076   Data           2  main.o(.data)
    intRollAngle                             0x20000078   Data           2  main.o(.data)
    intYawAngle                              0x2000007a   Data           2  main.o(.data)
    BMI160G_Rx                               0x2000007c   Data           6  main.o(.data)
    Gyr_X                                    0x20000082   Data           2  main.o(.data)
    Gyr_Y                                    0x20000084   Data           2  main.o(.data)
    Gyr_Z                                    0x20000086   Data           2  main.o(.data)
    GyrBias_X                                0x20000088   Data           2  main.o(.data)
    GyrBias_Y                                0x2000008a   Data           2  main.o(.data)
    GyrBias_Z                                0x2000008c   Data           2  main.o(.data)
    GyrScale_X                               0x2000008e   Data           2  main.o(.data)
    GyrScale_Y                               0x20000090   Data           2  main.o(.data)
    GyrScale_Z                               0x20000092   Data           2  main.o(.data)
    XGyrBias                                 0x20000094   Data           2  main.o(.data)
    YGyrBias                                 0x20000096   Data           2  main.o(.data)
    ZGyrBias                                 0x20000098   Data           2  main.o(.data)
    XGyrScale                                0x2000009a   Data           2  main.o(.data)
    YGyrScale                                0x2000009c   Data           2  main.o(.data)
    ZGyrScale                                0x2000009e   Data           2  main.o(.data)
    floPitchGyr                              0x200000a0   Data           4  main.o(.data)
    floRollGyr                               0x200000a4   Data           4  main.o(.data)
    floYawGyr                                0x200000a8   Data           4  main.o(.data)
    floYawAngle                              0x200000ac   Data           4  main.o(.data)
    intPitchGyr                              0x200000b0   Data           2  main.o(.data)
    intRollGyr                               0x200000b2   Data           2  main.o(.data)
    intYawGyr                                0x200000b4   Data           2  main.o(.data)
    IMU_Kind                                 0x200000b6   Data           1  main.o(.data)
    DIni_Flag                                0x200000b7   Data           1  main.o(.data)
    GpsKind                                  0x200000b8   Data           1  main.o(.data)
    ProductKind                              0x200000b9   Data           1  main.o(.data)
    FrameFirst                               0x200000ba   Data           1  main.o(.data)
    BaseTime                                 0x200000bb   Data           1  main.o(.data)
    DetaTime                                 0x200000bc   Data           1  main.o(.data)
    SaveTime                                 0x200000bd   Data           1  main.o(.data)
    SendTime                                 0x200000be   Data           1  main.o(.data)
    PackTime                                 0x200000bf   Data           1  main.o(.data)
    IMU_Send_Flag                            0x200000c0   Data           1  main.o(.data)
    IMU_DMA_Num                              0x200000c2   Data           2  main.o(.data)
    IMDMStime                                0x200000c4   Data           2  main.o(.data)
    IMDHour                                  0x200000c6   Data           1  main.o(.data)
    IMDMinute                                0x200000c7   Data           1  main.o(.data)
    IMDSecond                                0x200000c8   Data           1  main.o(.data)
    IMDMSecond                               0x200000c9   Data           1  main.o(.data)
    IMU_Flag                                 0x200000ca   Data           1  main.o(.data)
    Ins_Go_Flag                              0x200000cb   Data           1  main.o(.data)
    T1times                                  0x200000cc   Data           1  main.o(.data)
    T2times                                  0x200000ce   Data           2  main.o(.data)
    T3times                                  0x200000d0   Data           2  main.o(.data)
    IMU_Num                                  0x200000d2   Data           1  main.o(.data)
    GGA_Get_Flag                             0x200000d3   Data           1  main.o(.data)
    RMC_Get_Flag                             0x200000d4   Data           1  main.o(.data)
    VTG_Get_Flag                             0x200000d5   Data           1  main.o(.data)
    GST_Get_Flag                             0x200000d6   Data           1  main.o(.data)
    GSA_Get_Flag                             0x200000d7   Data           1  main.o(.data)
    GSV_Get_Flag                             0x200000d8   Data           1  main.o(.data)
    GGA_Config_flag                          0x200000d9   Data           1  main.o(.data)
    GST_Config_flag                          0x200000da   Data           1  main.o(.data)
    GSA_Config_flag                          0x200000db   Data           1  main.o(.data)
    GSV_Config_flag                          0x200000dc   Data           1  main.o(.data)
    GLL_Config_flag                          0x200000dd   Data           1  main.o(.data)
    VTG_Config_flag                          0x200000de   Data           1  main.o(.data)
    ZDA_Config_flag                          0x200000df   Data           1  main.o(.data)
    RMC_Config_flag                          0x200000e0   Data           1  main.o(.data)
    BD1_Config_flag                          0x200000e1   Data           1  main.o(.data)
    BD2_Config_flag                          0x200000e2   Data           1  main.o(.data)
    GL_Config_flag                           0x200000e3   Data           1  main.o(.data)
    RATE_Config_flag                         0x200000e4   Data           1  main.o(.data)
    PRT_Config_flag                          0x200000e5   Data           1  main.o(.data)
    timer_start_flag                         0x200000e6   Data           1  main.o(.data)
    ttime                                    0x200000e8   Data           2  main.o(.data)
    NorthSouthSelect                         0x200000ea   Data           1  main.o(.data)
    WestEastSelect                           0x200000eb   Data           1  main.o(.data)
    GetAgeDataFlag                           0x200000ec   Data           1  main.o(.data)
    GetAgeData                               0x200000ee   Data           2  main.o(.data)
    InPutDiffNum                             0x200000f0   Data           1  main.o(.data)
    Diff_First_Flag                          0x200000f1   Data           1  main.o(.data)
    Gps_Fren_Kind                            0x200000f2   Data           1  main.o(.data)
    Rmc_Vtg_Flag                             0x200000f3   Data           1  main.o(.data)
    GGA_Ini_Flag                             0x200000f4   Data           1  main.o(.data)
    Base_No_Num                              0x200000f5   Data           1  main.o(.data)
    GSA_Length                               0x200000f6   Data           2  main.o(.data)
    GGA_Rx_Counter                           0x200000f8   Data           1  main.o(.data)
    GGA_Rx_Max                               0x200000f9   Data           1  main.o(.data)
    m_GSPData_First                          0x200000fa   Data           1  main.o(.data)
    m_GSPData_Num                            0x200000fc   Data           2  main.o(.data)
    m_GSPData_NumB                           0x200000fe   Data           2  main.o(.data)
    Gps_No_Num                               0x20000100   Data           1  main.o(.data)
    Gps_No_Data_Num                          0x20000102   Data           2  main.o(.data)
    Gps_No_Flag                              0x20000104   Data           1  main.o(.data)
    GGARMC_Length                            0x20000106   Data           2  main.o(.data)
    GGARMCGST_Length                         0x20000108   Data           2  main.o(.data)
    GGA_Zero_Flag                            0x2000010a   Data           1  main.o(.data)
    RMC_Back_Flag                            0x2000010b   Data           1  main.o(.data)
    GGB_Data                                 0x2000010c   Data           8  main.o(.data)
    IMU_Send_OK                              0x20000114   Data           1  main.o(.data)
    GPS_Send_OK                              0x20000115   Data           1  main.o(.data)
    GNSS_Send_OK                             0x20000116   Data           1  main.o(.data)
    GSA_Send_OK                              0x20000117   Data           1  main.o(.data)
    ATT_Send_OK                              0x20000118   Data           1  main.o(.data)
    GNSS_Send_OK_Flag                        0x20000119   Data           1  main.o(.data)
    PackDebug_Flag                           0x2000011a   Data           1  main.o(.data)
    PackDebug_Time                           0x2000011b   Data           1  main.o(.data)
    DMA_Send_Kind                            0x2000011c   Data           1  main.o(.data)
    DMA_Tx_Num                               0x2000011e   Data           2  main.o(.data)
    GpsDriverImuFlag                         0x20000120   Data           1  main.o(.data)
    GpsDriverAnalyseFlag                     0x20000121   Data           1  main.o(.data)
    GpsDriverSendFlag                        0x20000122   Data           1  main.o(.data)
    GpsInsGetFlag                            0x20000123   Data           1  main.o(.data)
    Gnss_Get_Flag                            0x20000124   Data           1  main.o(.data)
    ZeroSecondFlag                           0x20000125   Data           1  main.o(.data)
    Gnss_Up_Flag                             0x20000126   Data           1  main.o(.data)
    High_DGet_Flag                           0x20000127   Data           1  main.o(.data)
    Buat_DGet_Flag                           0x20000128   Data           1  main.o(.data)
    GNGA_DGet_Flag                           0x20000129   Data           1  main.o(.data)
    ZDA_DGet_Flag                            0x2000012a   Data           1  main.o(.data)
    SGPS_DGet_Flag                           0x2000012b   Data           1  main.o(.data)
    BD_DGet_Flag                             0x2000012c   Data           1  main.o(.data)
    BD_GGet_Flag                             0x2000012d   Data           1  main.o(.data)
    GST_TGet_Flag                            0x2000012e   Data           1  main.o(.data)
    ATT_DGet_Flag                            0x2000012f   Data           1  main.o(.data)
    INS_DGet_Flag                            0x20000130   Data           1  main.o(.data)
    GSV_DGet_Flag                            0x20000131   Data           1  main.o(.data)
    ANG_DGet_Flag                            0x20000132   Data           1  main.o(.data)
    ANG_FGet_Flag                            0x20000133   Data           1  main.o(.data)
    RSE_DGet_Flag                            0x20000134   Data           1  main.o(.data)
    RSE_FGet_Flag                            0x20000135   Data           1  main.o(.data)
    RSE_SGet_Flag                            0x20000136   Data           1  main.o(.data)
    Lat_Back                                 0x20000138   Data           8  main.o(.data)
    Lon_Back                                 0x20000140   Data           8  main.o(.data)
    Pitch_Back                               0x20000148   Data           2  main.o(.data)
    Roll_Back                                0x2000014a   Data           2  main.o(.data)
    Head_Back                                0x2000014c   Data           2  main.o(.data)
    NorthSouthBack                           0x2000014e   Data           1  main.o(.data)
    WestEastBack                             0x2000014f   Data           1  main.o(.data)
    ANG_Lock_Flag                            0x20000150   Data           1  main.o(.data)
    ANG_Kind_Flag                            0x20000151   Data           1  main.o(.data)
    POS_First_Flag                           0x20000152   Data           1  main.o(.data)
    MisAngleData                             0x20000154   Data           2  main.o(.data)
    Ini0_KindBack                            0x20000156   Data           1  main.o(.data)
    Ini0_RollBack                            0x20000158   Data           2  main.o(.data)
    Ini0_PitchBack                           0x2000015a   Data           2  main.o(.data)
    Ini0_KindNew                             0x2000015c   Data           1  main.o(.data)
    Ini0_RollNew                             0x2000015e   Data           2  main.o(.data)
    Ini0_PitchNew                            0x20000160   Data           2  main.o(.data)
    Uart_Kind                                0x20000162   Data           1  main.o(.data)
    User_Kind                                0x20000163   Data           1  main.o(.data)
    Debug_Flag                               0x20000164   Data           1  main.o(.data)
    Up_On_Flag                               0x20000165   Data           1  main.o(.data)
    Data_Sort                                0x20000166   Data           1  main.o(.data)
    Pass_Rx_Counter                          0x20000167   Data           1  main.o(.data)
    Pass_Rx_Max                              0x20000168   Data           1  main.o(.data)
    Up_Rx_Counter                            0x20000169   Data           1  main.o(.data)
    Up_Rx_Max                                0x2000016a   Data           1  main.o(.data)
    Key_Rx_Counter                           0x2000016b   Data           1  main.o(.data)
    Key_Rx_Max                               0x2000016c   Data           1  main.o(.data)
    IMUTGetFlag                              0x2000016d   Data           1  main.o(.data)
    Command_Tx_Max                           0x2000016e   Data           1  main.o(.data)
    Command_Rx_Max                           0x2000016f   Data           1  main.o(.data)
    Comm_Sort                                0x20000170   Data           1  main.o(.data)
    Data_Com_Flag                            0x20000171   Data           1  main.o(.data)
    AHRSComFlag                              0x20000172   Data           1  main.o(.data)
    COM_Flag                                 0x20000173   Data           1  main.o(.data)
    Flash_Wing_Flag                          0x20000174   Data           1  main.o(.data)
    Flash_Wirte_Flag                         0x20000175   Data           1  main.o(.data)
    Data_Flash_W_Flag                        0x20000176   Data           1  main.o(.data)
    Update_One                               0x20000177   Data           1  main.o(.data)
    Update_Two                               0x20000178   Data           1  main.o(.data)
    Update_Flash_W_Flag                      0x20000179   Data           1  main.o(.data)
    MAngle_Flash_W_Flag                      0x2000017a   Data           1  main.o(.data)
    SVersionH                                0x2000017c   Data           2  main.o(.data)
    SVersionL                                0x2000017e   Data           2  main.o(.data)
    HVersionH                                0x20000180   Data           2  main.o(.data)
    HVersionL                                0x20000182   Data           2  main.o(.data)
    HVersionS                                0x20000184   Data           2  main.o(.data)
    YZ_Acce_Deta                             0x20000188   Data           4  main.o(.data)
    YZ_Dece_Deta                             0x2000018c   Data           4  main.o(.data)
    YZ_Turn_Deta                             0x20000190   Data           4  main.o(.data)
    YZ_Turn_Anlge                            0x20000194   Data           4  main.o(.data)
    YZ_Lane_Deta                             0x20000198   Data           4  main.o(.data)
    YZ_Lane_Anlge                            0x2000019c   Data           4  main.o(.data)
    YZ_Coll_Deta                             0x200001a0   Data           4  main.o(.data)
    YZ_Stab_Deta                             0x200001a4   Data           4  main.o(.data)
    YZ_Stab_Time                             0x200001a8   Data           4  main.o(.data)
    YZ_Att_Deta                              0x200001ac   Data           4  main.o(.data)
    YZ_Att_Min_Deta                          0x200001b0   Data           4  main.o(.data)
    YZ_Att_Max_Deta                          0x200001b4   Data           4  main.o(.data)
    Scale                                    0x200001b8   Data           4  main.o(.data)
    pi                                       0x200001bc   Data           4  main.o(.data)
    pImuData                                 0x200001c0   Data           4  main.o(.data)
    pGnssData                                0x200001c4   Data           4  main.o(.data)
    IMUDataReady                             0x200001c8   Data           4  main.o(.data)
    GNSSDataReady                            0x200001cc   Data           4  main.o(.data)
    GNSSDataGetFlag                          0x200001d0   Data           4  main.o(.data)
    IMUDataGetFlag                           0x200001d4   Data           4  main.o(.data)
    error_code                               0x200001d8   Data           1  main.o(.data)
    Ddx_data                                 0x200001d9   Data           8  main.o(.data)
    Ttx_data                                 0x200001e1   Data           8  main.o(.data)
    time1                                    0x200001ec   Data           4  main.o(.data)
    time0                                    0x200001f0   Data           4  main.o(.data)
    Lowpow_Flag                              0x200001f4   Data           1  main.o(.data)
    Lowpow_Sleep                             0x200001f5   Data           1  main.o(.data)
    Choose_Lowpow_Flag                       0x200001f8   Data           4  main.o(.data)
    Lowpow_Check                             0x200001fc   Data           1  main.o(.data)
    lowpower_timer_start                     0x200001fd   Data           1  main.o(.data)
    lowpower_start                           0x200001fe   Data           1  main.o(.data)
    Lowpow_time                              0x20000200   Data           4  main.o(.data)
    lowpow                                   0x20000204   Data           1  main.o(.data)
    testcheck                                0x20000205   Data           1  main.o(.data)
    Message_Rx_Counter                       0x20000216   Data           1  stm32f4xx_it.o(.data)
    Message_Rx_Max                           0x20000217   Data           1  stm32f4xx_it.o(.data)
    check1                                   0x2000021c   Data           1  24cxx.o(.data)
    adress                                   0x2000021d   Data           1  24cxx.o(.data)
    ID                                       0x20000274   Data           1  getacc.o(.data)
    flag_init                                0x200003d0   Data           1  alpu-c-0ff.o(.data)
    EDR_Key_Base_delta                       0x200003d1   Data          16  alpu-c-0ff.o(.data)
    dec_key_base_delta                       0x200003e1   Data          24  alpu-c-0ff.o(.data)
    dec_access_count                         0x200003f9   Data           2  alpu-c-0ff.o(.data)
    user_serial0                             0x200003fb   Data           8  alpu-c-0ff.o(.data)
    user_serial1                             0x20000403   Data           8  alpu-c-0ff.o(.data)
    __microlib_freelist                      0x20000410   Data           4  mvars.o(.data)
    __microlib_freelist_initialised          0x20000414   Data           4  mvars.o(.data)
    IMU_SData                                0x20000438   Data         816  main.o(.bss)
    DAT_SData                                0x20000768   Data         168  main.o(.bss)
    m_IMUData                                0x20000810   Data         300  main.o(.bss)
    m_IMUDataB                               0x2000093c   Data         300  main.o(.bss)
    IMUTC_Data                               0x20000a68   Data          20  main.o(.bss)
    IMU_DATAT                                0x20000a7c   Data          60  main.o(.bss)
    Change_Data                              0x20000ab8   Data          50  main.o(.bss)
    m_GSPData                                0x20000aea   Data         900  main.o(.bss)
    m_GSPDataB                               0x20000e6e   Data         900  main.o(.bss)
    m_GPSpData                               0x200011f2   Data         180  main.o(.bss)
    m_RMCpData                               0x200012a6   Data         180  main.o(.bss)
    GPGGAData                                0x20001360   Data         144  main.o(.bss)
    GPRMCData                                0x200013f0   Data          88  main.o(.bss)
    GPVTGData                                0x20001448   Data          64  main.o(.bss)
    GPGSTData                                0x20001488   Data          16  main.o(.bss)
    GPGSAData                                0x20001498   Data          56  main.o(.bss)
    GPGSVData                                0x200014d0   Data         508  main.o(.bss)
    GPZDAData                                0x200016cc   Data          14  main.o(.bss)
    GGA_Rx_Data                              0x200016da   Data          20  main.o(.bss)
    GGA_Data                                 0x200016ee   Data          20  main.o(.bss)
    GGS_Data                                 0x20001702   Data          15  main.o(.bss)
    TDM_TX_Data                              0x20001711   Data         400  main.o(.bss)
    TDM_Rx_Data                              0x200018a1   Data          60  main.o(.bss)
    Pass_Rx_Data                             0x200018dd   Data          10  main.o(.bss)
    Up_Rx_Data                               0x200018e7   Data          10  main.o(.bss)
    Key_Rx_Data                              0x200018f1   Data          20  main.o(.bss)
    CPU_ID_Data                              0x20001905   Data          25  main.o(.bss)
    Flash_Rdata                              0x2000191e   Data         150  main.o(.bss)
    Flash_Wdata                              0x200019b4   Data         150  main.o(.bss)
    IMUDataBuffer                            0x20001a50   Data          64  main.o(.bss)
    GNSSDataBuffer                           0x20001a90   Data         160  main.o(.bss)
    GINavResult                              0x20001b30   Data         200  main.o(.bss)
    g_GsavInfo                               0x20001bf8   Data          24  main.o(.bss)
    datatemp                                 0x20001c10   Data          20  main.o(.bss)
    Message_Rx_Data                          0x20001c24   Data          12  stm32f4xx_it.o(.bss)
    pBlock                                   0x20002428   Data         180  gifilter.o(.bss)
    g_GINavInfo                              0x200024e0   Data        1656  globalvars.o(.bss)
    alpuc_tx_data                            0x20002c30   Data          16  alpu-c-0ff.o(.bss)
    alpuc_rx_data                            0x20002c40   Data          16  alpu-c-0ff.o(.bss)
    __heap_base                              0x20002c50   Data           0  startup_stm32f401xx.o(HEAP)
    __heap_limit                             0x20006250   Data           0  startup_stm32f401xx.o(HEAP)
    __initial_sp                             0x2000e450   Data           0  startup_stm32f401xx.o(STACK)



==============================================================================

Memory Map of the image

  Image Entry point : 0x08010195

  Load Region LR_IROM1 (Base: 0x08010000, Size: 0x00020b64, Max: 0x00040000, ABSOLUTE, COMPRESSED[0x000207a0])

    Execution Region ER_IROM1 (Base: 0x08010000, Size: 0x00020748, Max: 0x00040000, ABSOLUTE)

    Base Addr    Size         Type   Attr      Idx    E Section Name        Object

    0x08010000   0x00000194   Data   RO         4135    RESET               startup_stm32f401xx.o
    0x08010194   0x00000000   Code   RO         4704  * .ARM.Collect$$$$00000000  mc_w.l(entry.o)
    0x08010194   0x00000004   Code   RO         4809    .ARM.Collect$$$$00000001  mc_w.l(entry2.o)
    0x08010198   0x00000004   Code   RO         4812    .ARM.Collect$$$$00000004  mc_w.l(entry5.o)
    0x0801019c   0x00000000   Code   RO         4814    .ARM.Collect$$$$00000008  mc_w.l(entry7b.o)
    0x0801019c   0x00000000   Code   RO         4816    .ARM.Collect$$$$0000000A  mc_w.l(entry8b.o)
    0x0801019c   0x00000008   Code   RO         4817    .ARM.Collect$$$$0000000B  mc_w.l(entry9a.o)
    0x080101a4   0x00000000   Code   RO         4819    .ARM.Collect$$$$0000000D  mc_w.l(entry10a.o)
    0x080101a4   0x00000000   Code   RO         4821    .ARM.Collect$$$$0000000F  mc_w.l(entry11a.o)
    0x080101a4   0x00000004   Code   RO         4810    .ARM.Collect$$$$00002712  mc_w.l(entry2.o)
    0x080101a8   0x00000024   Code   RO         4136    .text               startup_stm32f401xx.o
    0x080101cc   0x000006b4   Code   RO         4600    .text               ALPU-C-0FF.lib(alpu-c-0ff.o)
    0x08010880   0x00000062   Code   RO         4707    .text               mc_w.l(uldiv.o)
    0x080108e2   0x00000002   PAD
    0x080108e4   0x00000024   Code   RO         4709    .text               mc_w.l(rand.o)
    0x08010908   0x00000024   Code   RO         4712    .text               mc_w.l(memcpya.o)
    0x0801092c   0x00000024   Code   RO         4714    .text               mc_w.l(memseta.o)
    0x08010950   0x0000001c   Code   RO         4716    .text               mc_w.l(strcmp.o)
    0x0801096c   0x0000001a   Code   RO         4748    .text               mc_w.l(atoi.o)
    0x08010986   0x0000014e   Code   RO         4750    .text               mf_w.l(dadd.o)
    0x08010ad4   0x000000e4   Code   RO         4752    .text               mf_w.l(dmul.o)
    0x08010bb8   0x000000de   Code   RO         4754    .text               mf_w.l(ddiv.o)
    0x08010c96   0x00000022   Code   RO         4758    .text               mf_w.l(dflti.o)
    0x08010cb8   0x0000001a   Code   RO         4760    .text               mf_w.l(dfltui.o)
    0x08010cd2   0x0000003e   Code   RO         4762    .text               mf_w.l(dfixi.o)
    0x08010d10   0x00000032   Code   RO         4764    .text               mf_w.l(dfixui.o)
    0x08010d42   0x00000030   Code   RO         4766    .text               mf_w.l(dfixul.o)
    0x08010d72   0x00000026   Code   RO         4768    .text               mf_w.l(f2d.o)
    0x08010d98   0x00000030   Code   RO         4770    .text               mf_w.l(cdcmple.o)
    0x08010dc8   0x00000030   Code   RO         4772    .text               mf_w.l(cdrcmple.o)
    0x08010df8   0x00000038   Code   RO         4774    .text               mf_w.l(d2f.o)
    0x08010e30   0x0000001e   Code   RO         4823    .text               mc_w.l(llshl.o)
    0x08010e4e   0x00000020   Code   RO         4825    .text               mc_w.l(llushr.o)
    0x08010e6e   0x00000024   Code   RO         4827    .text               mc_w.l(llsshr.o)
    0x08010e92   0x00000002   PAD
    0x08010e94   0x0000009c   Code   RO         4838    .text               mc_w.l(strtod.o)
    0x08010f30   0x00000070   Code   RO         4840    .text               mc_w.l(strtol.o)
    0x08010fa0   0x00000000   Code   RO         4842    .text               mc_w.l(iusefp.o)
    0x08010fa0   0x0000006e   Code   RO         4843    .text               mf_w.l(fepilogue.o)
    0x0801100e   0x000000ba   Code   RO         4845    .text               mf_w.l(depilogue.o)
    0x080110c8   0x000000a2   Code   RO         4847    .text               mf_w.l(dsqrt.o)
    0x0801116a   0x00000002   PAD
    0x0801116c   0x00000024   Code   RO         4849    .text               mc_w.l(init.o)
    0x08011190   0x00000008   Code   RO         4853    .text               mc_w.l(ctype_o.o)
    0x08011198   0x00000012   Code   RO         4875    .text               mc_w.l(isspace_o.o)
    0x080111aa   0x00000002   PAD
    0x080111ac   0x00000338   Code   RO         4881    .text               mc_w.l(scanf_fp.o)
    0x080114e4   0x00000040   Code   RO         4885    .text               mc_w.l(_sgetc.o)
    0x08011524   0x0000009e   Code   RO         4887    .text               mc_w.l(_strtoul.o)
    0x080115c2   0x0000001c   Code   RO         4892    .text               mc_w.l(_chval.o)
    0x080115de   0x00000018   Code   RO         4894    .text               mf_w.l(dfltul.o)
    0x080115f6   0x00000056   Code   RO         4904    .text               mc_w.l(__dczerorl2.o)
    0x0801164c   0x000000a0   Code   RO         3436    i.Acc_Ini           getacc.o
    0x080116ec   0x000001b0   Code   RO         4243    i.AddMtxMt          basicfunc.o
    0x0801189c   0x000001b0   Code   RO         4245    i.AddMxMt           basicfunc.o
    0x08011a4c   0x00000264   Code   RO         4246    i.AddMxMtxMt        basicfunc.o
    0x08011cb0   0x00000264   Code   RO         4247    i.AddMxMxMt         basicfunc.o
    0x08011f14   0x00000122   Code   RO         4248    i.Addequal          basicfunc.o
    0x08012036   0x00000002   PAD
    0x08012038   0x00000844   Code   RO         3182    i.Analyse_GpsData   getnass.o
    0x0801287c   0x00000070   Code   RO         2558    i.ApluCode          main.o
    0x080128ec   0x00000134   Code   RO         3437    i.BMI160_Ini        getacc.o
    0x08012a20   0x00000034   Code   RO         3061    i.Buftodouble       stmflash.o
    0x08012a54   0x0000017c   Code   RO         4249    i.CM2Euler          basicfunc.o
    0x08012bd0   0x000001c2   Code   RO         4251    i.CMRotation        basicfunc.o
    0x08012d92   0x00000002   PAD
    0x08012d94   0x0000020c   Code   RO         4372    i.ChangeGstDeta     gifilter.o
    0x08012fa0   0x000000d0   Code   RO         3746    i.Change_SensorData  getimu.o
    0x08013070   0x00000074   Code   RO         3747    i.Change_Time       getimu.o
    0x080130e4   0x000000a8   Code   RO         4142    i.Check_Lock_Code   encryptid.o
    0x0801318c   0x00000060   Code   RO         3438    i.Checkout_2Pi      getacc.o
    0x080131ec   0x0000003c   Code   RO         3577    i.Checkout_PGyr     getgyr.o
    0x08013228   0x00000040   Code   RO         3439    i.Checkout_Pi       getacc.o
    0x08013268   0x0000003c   Code   RO         3578    i.Checkout_RGyr     getgyr.o
    0x080132a4   0x0000003c   Code   RO         3579    i.Checkout_YGyr     getgyr.o
    0x080132e0   0x00000038   Code   RO         3440    i.Checkout_a2g      getacc.o
    0x08013318   0x00000038   Code   RO         3441    i.Checkout_p2g      getacc.o
    0x08013350   0x00000038   Code   RO         3442    i.Checkout_r2g      getacc.o
    0x08013388   0x00000048   Code   RO         2375    i.Com2SendData      commdata.o
    0x080133d0   0x000002fc   Code   RO         2376    i.Command_Handle    commdata.o
    0x080136cc   0x000002dc   Code   RO         4516    i.ConfirmHeading    insalign.o
    0x080139a8   0x00000024   Code   RO         3443    i.Convert_Acc_Data  getacc.o
    0x080139cc   0x0000005c   Code   RO         3580    i.ConvertorGyrData  getgyr.o
    0x08013a28   0x0000006c   Code   RO         3444    i.ConvertorPAcc     getacc.o
    0x08013a94   0x00000078   Code   RO         3445    i.ConvertorPAngle   getacc.o
    0x08013b0c   0x00000078   Code   RO         3446    i.ConvertorRAcc     getacc.o
    0x08013b84   0x000000c4   Code   RO         3447    i.ConvertorRAngle   getacc.o
    0x08013c48   0x00000078   Code   RO         3448    i.ConvertorZAcc     getacc.o
    0x08013cc0   0x00000208   Code   RO         3449    i.CoordChangeA      getacc.o
    0x08013ec8   0x00000208   Code   RO         3581    i.CoordChangeG      getgyr.o
    0x080140d0   0x0000002c   Code   RO         2649    i.DMA2_Stream7_IRQHandler  stm32f4xx_it.o
    0x080140fc   0x00000034   Code   RO         2013    i.DMA_ClearFlag     stm32f4xx_dma.o
    0x08014130   0x00000016   Code   RO         2015    i.DMA_Cmd           stm32f4xx_dma.o
    0x08014146   0x00000002   PAD
    0x08014148   0x00000158   Code   RO         2016    i.DMA_DeInit        stm32f4xx_dma.o
    0x080142a0   0x0000007c   Code   RO         2650    i.DMA_Finish        stm32f4xx_it.o
    0x0801431c   0x00000014   Code   RO         2020    i.DMA_GetCmdStatus  stm32f4xx_dma.o
    0x08014330   0x00000044   Code   RO         2024    i.DMA_GetFlagStatus  stm32f4xx_dma.o
    0x08014374   0x0000003a   Code   RO         2026    i.DMA_ITConfig      stm32f4xx_dma.o
    0x080143ae   0x00000002   PAD
    0x080143b0   0x00000058   Code   RO         2027    i.DMA_Init          stm32f4xx_dma.o
    0x08014408   0x00000038   Code   RO         3232    i.DataJudge         getgps.o
    0x08014440   0x00000030   Code   RO         4163    i.DataProcerInit    dataproc.o
    0x08014470   0x0000001c   Code   RO         3062    i.Data_Flash_Decode  stmflash.o
    0x0801448c   0x00000090   Code   RO         3063    i.Data_Flash_Save   stmflash.o
    0x0801451c   0x0000016c   Code   RO         2559    i.Data_Ini          main.o
    0x08014688   0x00000048   Code   RO         3748    i.Data_Synch        getimu.o
    0x080146d0   0x00000560   Code   RO         4548    i.DynamicModeIdentify  insnav.o
    0x08014c30   0x00000034   Code   RO         4073    i.EEPROM_Check      eeprom.o
    0x08014c64   0x0000005c   Code   RO         4077    i.EEPROM_ReadOneByte  eeprom.o
    0x08014cc0   0x00000024   Code   RO         4078    i.EEPROM_Write      eeprom.o
    0x08014ce4   0x00000054   Code   RO         4080    i.EEPROM_WriteOneByte  eeprom.o
    0x08014d38   0x00000040   Code   RO         2651    i.EXTI0_IRQHandler  stm32f4xx_it.o
    0x08014d78   0x00000026   Code   RO         2652    i.EXTI15_10_IRQHandler  stm32f4xx_it.o
    0x08014d9e   0x00000028   Code   RO         2794    i.EXTIX_Init        hw_config.o
    0x08014dc6   0x00000002   PAD
    0x08014dc8   0x0000000c   Code   RO         2192    i.EXTI_ClearITPendingBit  stm32f4xx_exti.o
    0x08014dd4   0x00000018   Code   RO         2196    i.EXTI_GetITStatus  stm32f4xx_exti.o
    0x08014dec   0x00000094   Code   RO         2197    i.EXTI_Init         stm32f4xx_exti.o
    0x08014e80   0x00000284   Code   RO         4252    i.Euler2Quat        basicfunc.o
    0x08015104   0x00000024   Code   RO         1760    i.FLASH_DataCacheCmd  stm32f4xx_flash.o
    0x08015128   0x00000088   Code   RO         1765    i.FLASH_EraseSector  stm32f4xx_flash.o
    0x080151b0   0x00000054   Code   RO         1767    i.FLASH_GetStatus   stm32f4xx_flash.o
    0x08015204   0x00000014   Code   RO         1771    i.FLASH_Lock        stm32f4xx_flash.o
    0x08015218   0x00000050   Code   RO         1795    i.FLASH_ProgramWord  stm32f4xx_flash.o
    0x08015268   0x00000024   Code   RO         1797    i.FLASH_Unlock      stm32f4xx_flash.o
    0x0801528c   0x00000022   Code   RO         1798    i.FLASH_WaitForLastOperation  stm32f4xx_flash.o
    0x080152ae   0x00000002   PAD
    0x080152b0   0x0000005c   Code   RO         3233    i.Flag_Clear        getgps.o
    0x0801530c   0x000006e4   Code   RO         4373    i.GIKFBatchSolution  gifilter.o
    0x080159f0   0x00000664   Code   RO         4374    i.GIKFCalcPHIMatrix  gifilter.o
    0x08016054   0x0000049c   Code   RO         4375    i.GIKFCheckGIResult  gifilter.o
    0x080164f0   0x000003d4   Code   RO         4376    i.GIKFCheckPMatrix  gifilter.o
    0x080168c4   0x0000066c   Code   RO         4377    i.GIKFINSErrorFix   gifilter.o
    0x08016f30   0x00000080   Code   RO         4378    i.GIKFInit          gifilter.o
    0x08016fb0   0x00000094   Code   RO         4379    i.GIKFInitPMatrix   gifilter.o
    0x08017044   0x00000058   Code   RO         4380    i.GIKFModularizePMatrix  gifilter.o
    0x0801709c   0x000007e8   Code   RO         4381    i.GIKFPredictPMatrix  gifilter.o
    0x08017884   0x0000062c   Code   RO         4382    i.GIKFUpdateByGNSS  gifilter.o
    0x08017eb0   0x000004a4   Code   RO         4196    i.GINavInit         ginavmain.o
    0x08018354   0x00000b54   Code   RO         4197    i.GINavProc         ginavmain.o
    0x08018ea8   0x000001ac   Code   RO         2795    i.GPIO_Configuration  hw_config.o
    0x08019054   0x00000090   Code   RO          134    i.GPIO_Init         stm32f4xx_gpio.o
    0x080190e4   0x00000046   Code   RO          135    i.GPIO_PinAFConfig  stm32f4xx_gpio.o
    0x0801912a   0x00000004   Code   RO          141    i.GPIO_ResetBits    stm32f4xx_gpio.o
    0x0801912e   0x00000004   Code   RO          142    i.GPIO_SetBits      stm32f4xx_gpio.o
    0x08019132   0x00000002   PAD
    0x08019134   0x00000024   Code   RO         3234    i.GPS_Rate_Config   getgps.o
    0x08019158   0x00000718   Code   RO         3871    i.GetAngle          sendgps.o
    0x08019870   0x00000680   Code   RO         3872    i.GetAngleDis       sendgps.o
    0x08019ef0   0x00000060   Code   RO         2377    i.GetCrcData        commdata.o
    0x08019f50   0x000000a4   Code   RO         3183    i.GetDiffAgeData    getnass.o
    0x08019ff4   0x0000008e   Code   RO         3235    i.GetField          getgps.o
    0x0801a082   0x00000002   PAD
    0x0801a084   0x0000001c   Code   RO         4164    i.GetGNSSData       dataproc.o
    0x0801a0a0   0x00000964   Code   RO         3873    i.GetGPRMC          sendgps.o
    0x0801aa04   0x00000690   Code   RO         3874    i.GetGPVTG          sendgps.o
    0x0801b094   0x000003b4   Code   RO         3875    i.GetGPZDA          sendgps.o
    0x0801b448   0x0000001c   Code   RO         4165    i.GetIMUData        dataproc.o
    0x0801b464   0x00000a78   Code   RO         3876    i.GetLGPGGA         sendgps.o
    0x0801bedc   0x0000014c   Code   RO         4255    i.GetLocalGravity   basicfunc.o
    0x0801c028   0x00000158   Code   RO         4256    i.GetNavFrameQuat   basicfunc.o
    0x0801c180   0x00000084   Code   RO         4387    i.GetQMatrix        gifilter.o
    0x0801c204   0x0000005c   Code   RO         3877    i.GetRMCData        sendgps.o
    0x0801c260   0x00000088   Code   RO         3749    i.GetUTCTime        getimu.o
    0x0801c2e8   0x0000013c   Code   RO         3450    i.Get_Acc_XYZ       getacc.o
    0x0801c424   0x000000b8   Code   RO         3451    i.Get_Angle_XYZ     getacc.o
    0x0801c4dc   0x00000094   Code   RO         3750    i.Get_BMI055_Data   getimu.o
    0x0801c570   0x00000078   Code   RO         3452    i.Get_BMI160A_Data  getacc.o
    0x0801c5e8   0x00000070   Code   RO         3582    i.Get_BMI160G_Data  getgyr.o
    0x0801c658   0x000003a0   Code   RO         3236    i.Get_GGA_RMC_GST   getgps.o
    0x0801c9f8   0x000000c4   Code   RO         3237    i.Get_GSA_GAV       getgps.o
    0x0801cabc   0x000000b8   Code   RO         3238    i.Get_RMC_Data      getgps.o
    0x0801cb74   0x000000fc   Code   RO         3583    i.Get_Rate_Data     getgyr.o
    0x0801cc70   0x000000ac   Code   RO         3584    i.Get_Yaw_Data      getgyr.o
    0x0801cd1c   0x000012cc   Code   RO         4497    i.GnssEvaluation    gnss.o
    0x0801dfe8   0x00000030   Code   RO         3240    i.GpsBautConfig     getgps.o
    0x0801e018   0x000006e0   Code   RO         3241    i.GpsConfig2        getgps.o
    0x0801e6f8   0x000000e8   Code   RO         3242    i.GpsGLOpen         getgps.o
    0x0801e7e0   0x00000150   Code   RO         3243    i.GpsGsvClose       getgps.o
    0x0801e930   0x00000150   Code   RO         3244    i.GpsGsvOpen        getgps.o
    0x0801ea80   0x000000b8   Code   RO         3245    i.Gps_Receive_Handle  getgps.o
    0x0801eb38   0x00000038   Code   RO         3585    i.Gyr_Ini           getgyr.o
    0x0801eb70   0x00000110   Code   RO         4549    i.HandleCompensate  insnav.o
    0x0801ec80   0x000002a0   Code   RO         3246    i.HandleGGAOn       getgps.o
    0x0801ef20   0x00000016   Code   RO         3247    i.HandleGpsData     getgps.o
    0x0801ef36   0x00000002   PAD
    0x0801ef38   0x00000030   Code   RO         3248    i.HandleGpsIni      getgps.o
    0x0801ef68   0x00000f58   Code   RO         2378    i.HandleKeyOn       commdata.o
    0x0801fec0   0x000000f0   Code   RO         2379    i.HandlePassOn      commdata.o
    0x0801ffb0   0x000000c0   Code   RO         2380    i.HandleUpdata      commdata.o
    0x08020070   0x00000068   Code   RO         2381    i.HandleUserData    commdata.o
    0x080200d8   0x00000088   Code   RO         2653    i.Handle_Ini        stm32f4xx_it.o
    0x08020160   0x00000008   Code   RO         2796    i.I2C_Configuration  hw_config.o
    0x08020168   0x00000054   Code   RO         3659    i.IIC_Ack           myiic.o
    0x080201bc   0x00000070   Code   RO         3660    i.IIC_Init          myiic.o
    0x0802022c   0x00000054   Code   RO         3661    i.IIC_NAck          myiic.o
    0x08020280   0x0000006c   Code   RO         3662    i.IIC_Read_Byte     myiic.o
    0x080202ec   0x00000068   Code   RO         3663    i.IIC_Send_Byte     myiic.o
    0x08020354   0x00000054   Code   RO         3664    i.IIC_Start         myiic.o
    0x080203a8   0x0000005c   Code   RO         3665    i.IIC_Stop          myiic.o
    0x08020404   0x00000064   Code   RO         3666    i.IIC_Wait_Ack      myiic.o
    0x08020468   0x000000b0   Code   RO         3751    i.IMDAT_Deal        getimu.o
    0x08020518   0x000001e8   Code   RO         4550    i.IMUCompensate     insnav.o
    0x08020700   0x0000035c   Code   RO         3752    i.IMUData_Deal      getimu.o
    0x08020a5c   0x0000011c   Code   RO         3754    i.IMU_ALL_DMA       getimu.o
    0x08020b78   0x00000e58   Code   RO         4517    i.INSAlign          insalign.o
    0x080219d0   0x000040bc   Code   RO         4551    i.INSUpdate         insnav.o
    0x08025a8c   0x00000010   Code   RO         2143    i.IWDG_ReloadCounter  stm32f4xx_iwdg.o
    0x08025a9c   0x00000290   Code   RO         4518    i.InitGyroBias      insalign.o
    0x08025d2c   0x00001540   Code   RO         4552    i.InitInstallMat    insnav.o
    0x0802726c   0x00000104   Code   RO         3453    i.Interrupt_Any_motion  getacc.o
    0x08027370   0x00000150   Code   RO         2654    i.Message_Ack_handle  stm32f4xx_it.o
    0x080274c0   0x00000244   Code   RO         3064    i.MisAngle_Flash_Decode  stmflash.o
    0x08027704   0x00000218   Code   RO         3065    i.MisAngle_Flash_INI  stmflash.o
    0x0802791c   0x00000094   Code   RO         3066    i.MisAngle_Flash_Save  stmflash.o
    0x080279b0   0x000000e4   Code   RO         2797    i.NVIC_Configuration  hw_config.o
    0x08027a94   0x000000a0   Code   RO         2798    i.NVIC_ConfigurationDis  hw_config.o
    0x08027b34   0x00000078   Code   RO            3    i.NVIC_Init         misc.o
    0x08027bac   0x00000014   Code   RO            4    i.NVIC_PriorityGroupConfig  misc.o
    0x08027bc0   0x00000014   Code   RO            5    i.NVIC_SetVectorTable  misc.o
    0x08027bd4   0x00000178   Code   RO         4258    i.NormQuat          basicfunc.o
    0x08027d4c   0x00000014   Code   RO         2255    i.PWR_ClearFlag     stm32f4xx_pwr.o
    0x08027d60   0x00000028   Code   RO         2257    i.PWR_EnterSTANDBYMode  stm32f4xx_pwr.o
    0x08027d88   0x00000044   Code   RO         2258    i.PWR_EnterSTOPMode  stm32f4xx_pwr.o
    0x08027dcc   0x0000000c   Code   RO         2270    i.PWR_WakeUpPinCmd  stm32f4xx_pwr.o
    0x08027dd8   0x00000068   Code   RO         3878    i.Pack_GnssData     sendgps.o
    0x08027e40   0x000002b0   Code   RO         3755    i.Pack_IMUData      getimu.o
    0x080280f0   0x000000dc   Code   RO         3879    i.Pack_Send_Debug   sendgps.o
    0x080281cc   0x000001b8   Code   RO         3067    i.Para_Data_Protection  stmflash.o
    0x08028384   0x000000e0   Code   RO         3068    i.Para_Flash_Decode  stmflash.o
    0x08028464   0x000000c8   Code   RO         3069    i.Para_Flash_INI    stmflash.o
    0x0802852c   0x000000e4   Code   RO         3881    i.ProcessAgeTOA     sendgps.o
    0x08028610   0x00000048   Code   RO         3756    i.ProcessCheckIMU   getimu.o
    0x08028658   0x00000048   Code   RO         3882    i.ProcessCheckResult  sendgps.o
    0x080286a0   0x00000074   Code   RO         3883    i.ProcessCheckToA   sendgps.o
    0x08028714   0x00000074   Code   RO         3757    i.ProcessCheckToAIMU  getimu.o
    0x08028788   0x0000036c   Code   RO         3249    i.ProcessCommand    getgps.o
    0x08028af4   0x0000044c   Code   RO         3250    i.ProcessGPGGA      getgps.o
    0x08028f40   0x00000128   Code   RO         3251    i.ProcessGPGSA      getgps.o
    0x08029068   0x000000e8   Code   RO         3252    i.ProcessGPGST      getgps.o
    0x08029150   0x00000160   Code   RO         3253    i.ProcessGPGSV      getgps.o
    0x080292b0   0x00000440   Code   RO         3254    i.ProcessGPRMC      getgps.o
    0x080296f0   0x000001a8   Code   RO         3255    i.ProcessGPVTG      getgps.o
    0x08029898   0x00000198   Code   RO         3256    i.ProcessGPZDA      getgps.o
    0x08029a30   0x000000ac   Code   RO         3884    i.ProcessIITOA      sendgps.o
    0x08029adc   0x00000050   Code   RO         3885    i.ProcessITOA       sendgps.o
    0x08029b2c   0x00000050   Code   RO         3758    i.ProcessITOAH      getimu.o
    0x08029b7c   0x00000074   Code   RO         3759    i.ProcessITOAM      getimu.o
    0x08029bf0   0x0000029c   Code   RO         3887    i.ProcessLatToA     sendgps.o
    0x08029e8c   0x000002b4   Code   RO         3888    i.ProcessLongToA    sendgps.o
    0x0802a140   0x00000188   Code   RO         3257    i.ProcessNMEA       getgps.o
    0x0802a2c8   0x0000093c   Code   RO         3890    i.ProcessSFTOA      sendgps.o
    0x0802ac04   0x0000098c   Code   RO         3891    i.ProcessSSFTOA     sendgps.o
    0x0802b590   0x000000ac   Code   RO         2382    i.ProcessVTOA       commdata.o
    0x0802b63c   0x00000400   Code   RO         3892    i.ProcessZLSFTOA    sendgps.o
    0x0802ba3c   0x00000354   Code   RO         4259    i.Quat2CM           basicfunc.o
    0x0802bd90   0x000003a8   Code   RO         4260    i.QuatMulti         basicfunc.o
    0x0802c138   0x00000020   Code   RO          231    i.RCC_AHB1PeriphClockCmd  stm32f4xx_rcc.o
    0x0802c158   0x00000020   Code   RO          240    i.RCC_APB1PeriphClockCmd  stm32f4xx_rcc.o
    0x0802c178   0x00000020   Code   RO          243    i.RCC_APB2PeriphClockCmd  stm32f4xx_rcc.o
    0x0802c198   0x00000030   Code   RO         2799    i.RCC_Configuration  hw_config.o
    0x0802c1c8   0x000000e8   Code   RO          252    i.RCC_GetClocksFreq  stm32f4xx_rcc.o
    0x0802c2b0   0x000003ec   Code   RO         4261    i.RotVec2Quat       basicfunc.o
    0x0802c69c   0x0000003c   Code   RO         3038    i.SPI_ADS_SendData  spi.o
    0x0802c6d8   0x00000018   Code   RO         1039    i.SPI_Cmd           stm32f4xx_spi.o
    0x0802c6f0   0x00000054   Code   RO         2800    i.SPI_Configuration  hw_config.o
    0x0802c744   0x00000012   Code   RO         1047    i.SPI_I2S_GetFlagStatus  stm32f4xx_spi.o
    0x0802c756   0x00000006   Code   RO         1050    i.SPI_I2S_ReceiveData  stm32f4xx_spi.o
    0x0802c75c   0x00000004   Code   RO         1051    i.SPI_I2S_SendData  stm32f4xx_spi.o
    0x0802c760   0x0000003c   Code   RO         1052    i.SPI_Init          stm32f4xx_spi.o
    0x0802c79c   0x000000a0   Code   RO         3070    i.STMFLASH_GetFlashSector  stmflash.o
    0x0802c83c   0x00000020   Code   RO         3071    i.STMFLASH_Read     stmflash.o
    0x0802c85c   0x00000006   Code   RO         3072    i.STMFLASH_ReadWord  stmflash.o
    0x0802c862   0x00000002   PAD
    0x0802c864   0x000000b0   Code   RO         3073    i.STMFLASH_Write    stmflash.o
    0x0802c914   0x00000040   Code   RO          568    i.SYSCFG_EXTILineConfig  stm32f4xx_syscfg.o
    0x0802c954   0x00000040   Code   RO         3258    i.SaveGpsData       getgps.o
    0x0802c994   0x000000f4   Code   RO         3760    i.Save_ALLIMUData   getimu.o
    0x0802ca88   0x000000b8   Code   RO         3761    i.Save_DATData      getimu.o
    0x0802cb40   0x000000dc   Code   RO         3762    i.Save_IMUData      getimu.o
    0x0802cc1c   0x000006e4   Code   RO         3259    i.SendConfigMessage  getgps.o
    0x0802d300   0x000004b8   Code   RO         2383    i.SendData          commdata.o
    0x0802d7b8   0x0000001c   Code   RO         2801    i.SendDriver        hw_config.o
    0x0802d7d4   0x000000a0   Code   RO         2384    i.SendText          commdata.o
    0x0802d874   0x000003b8   Code   RO         2385    i.SendVersion       commdata.o
    0x0802dc2c   0x00000050   Code   RO         3260    i.Send_GPSData      getgps.o
    0x0802dc7c   0x00000064   Code   RO         3893    i.Send_GSAData      sendgps.o
    0x0802dce0   0x000000d4   Code   RO         3894    i.Send_GnssData     sendgps.o
    0x0802ddb4   0x000001a0   Code   RO         3763    i.Send_IMUData      getimu.o
    0x0802df54   0x00000048   Code   RO         2386    i.SerialPutChar     commdata.o
    0x0802df9c   0x00000016   Code   RO         2387    i.Serial_PutString  commdata.o
    0x0802dfb2   0x00000002   PAD
    0x0802dfb4   0x000000e8   Code   RO         2757    i.SetSysClock       system_stm32f4xx.o
    0x0802e09c   0x0000002c   Code   RO         2802    i.Set_System        hw_config.o
    0x0802e0c8   0x00000078   Code   RO         4388    i.SigmaJudge        gifilter.o
    0x0802e140   0x00000034   Code   RO         3074    i.SoftReset         stmflash.o
    0x0802e174   0x00000028   Code   RO            7    i.SysTick_CLKSourceConfig  misc.o
    0x0802e19c   0x00000068   Code   RO         2759    i.SystemInit        system_stm32f4xx.o
    0x0802e204   0x00000034   Code   RO         2655    i.TIM2_IRQHandler   stm32f4xx_it.o
    0x0802e238   0x000000a0   Code   RO         2803    i.TIM3_Configuration  hw_config.o
    0x0802e2d8   0x000000b0   Code   RO         2656    i.TIM3_IRQHandler   stm32f4xx_it.o
    0x0802e388   0x00000006   Code   RO         1208    i.TIM_ClearITPendingBit  stm32f4xx_tim.o
    0x0802e38e   0x00000018   Code   RO         1213    i.TIM_Cmd           stm32f4xx_tim.o
    0x0802e3a6   0x00000012   Code   RO         1238    i.TIM_ITConfig      stm32f4xx_tim.o
    0x0802e3b8   0x00000084   Code   RO         1285    i.TIM_TimeBaseInit  stm32f4xx_tim.o
    0x0802e43c   0x00000184   Code   RO         4262    i.TriangleMatInv    basicfunc.o
    0x0802e5c0   0x00000034   Code   RO         2657    i.USART1_IRQHandler  stm32f4xx_it.o
    0x0802e5f4   0x0000003c   Code   RO         2658    i.USART2_IRQHandler  stm32f4xx_it.o
    0x0802e630   0x0000002c   Code   RO         2659    i.USART6_IRQHandler  stm32f4xx_it.o
    0x0802e65c   0x00000012   Code   RO          621    i.USART_ClearFlag   stm32f4xx_usart.o
    0x0802e66e   0x0000001e   Code   RO          622    i.USART_ClearITPendingBit  stm32f4xx_usart.o
    0x0802e68c   0x00000018   Code   RO          625    i.USART_Cmd         stm32f4xx_usart.o
    0x0802e6a4   0x00000130   Code   RO         2804    i.USART_Configuration  hw_config.o
    0x0802e7d4   0x00000012   Code   RO          626    i.USART_DMACmd      stm32f4xx_usart.o
    0x0802e7e6   0x00000002   PAD
    0x0802e7e8   0x00000084   Code   RO         2805    i.USART_DMA_TX_Configuration  hw_config.o
    0x0802e86c   0x0000001a   Code   RO          628    i.USART_GetFlagStatus  stm32f4xx_usart.o
    0x0802e886   0x00000054   Code   RO          629    i.USART_GetITStatus  stm32f4xx_usart.o
    0x0802e8da   0x0000004a   Code   RO          631    i.USART_ITConfig    stm32f4xx_usart.o
    0x0802e924   0x000000d4   Code   RO          632    i.USART_Init        stm32f4xx_usart.o
    0x0802e9f8   0x0000000a   Code   RO          639    i.USART_ReceiveData  stm32f4xx_usart.o
    0x0802ea02   0x00000008   Code   RO          642    i.USART_SendData    stm32f4xx_usart.o
    0x0802ea0a   0x00000002   PAD
    0x0802ea0c   0x0000001c   Code   RO         3075    i.Update_Flash_INI  stmflash.o
    0x0802ea28   0x00000064   Code   RO         3076    i.Update_Flash_Save  stmflash.o
    0x0802ea8c   0x00000030   Code   RO         4793    i.__ARM_fpclassify  m_wm.l(fpclassify.o)
    0x0802eabc   0x00000008   Code   RO         4831    i.__aeabi_errno_addr  mc_w.l(errno.o)
    0x0802eac4   0x00000004   PAD
    0x0802eac8   0x00000360   Code   RO         4616    i.__hardfp_asin     m_wm.l(asin.o)
    0x0802ee28   0x000002d8   Code   RO         4630    i.__hardfp_atan     m_wm.l(atan.o)
    0x0802f100   0x000001f0   Code   RO         4644    i.__hardfp_atan2    m_wm.l(atan2.o)
    0x0802f2f0   0x00000038   Code   RO         4656    i.__hardfp_atof     m_wm.l(atof.o)
    0x0802f328   0x000000c8   Code   RO         4662    i.__hardfp_cos      m_wm.l(cos.o)
    0x0802f3f0   0x00000014   Code   RO         4674    i.__hardfp_fabs     m_wm.l(fabs.o)
    0x0802f404   0x00000004   PAD
    0x0802f408   0x000000c8   Code   RO         4680    i.__hardfp_sin      m_wm.l(sin.o)
    0x0802f4d0   0x0000007a   Code   RO         4692    i.__hardfp_sqrt     m_wm.l(sqrt.o)
    0x0802f54a   0x00000006   PAD
    0x0802f550   0x00000438   Code   RO         4798    i.__ieee754_rem_pio2  m_wm.l(rred.o)
    0x0802f988   0x00000170   Code   RO         4776    i.__kernel_cos      m_wm.l(cos_i.o)
    0x0802faf8   0x000000f8   Code   RO         4795    i.__kernel_poly     m_wm.l(poly.o)
    0x0802fbf0   0x00000130   Code   RO         4803    i.__kernel_sin      m_wm.l(sin_i.o)
    0x0802fd20   0x00000014   Code   RO         4780    i.__mathlib_dbl_infnan  m_wm.l(dunder.o)
    0x0802fd34   0x00000014   Code   RO         4781    i.__mathlib_dbl_infnan2  m_wm.l(dunder.o)
    0x0802fd48   0x00000020   Code   RO         4782    i.__mathlib_dbl_invalid  m_wm.l(dunder.o)
    0x0802fd68   0x00000020   Code   RO         4785    i.__mathlib_dbl_underflow  m_wm.l(dunder.o)
    0x0802fd88   0x0000000c   Code   RO         4832    i.__read_errno      mc_w.l(errno.o)
    0x0802fd94   0x0000000e   Code   RO         4898    i.__scatterload_copy  mc_w.l(handlers.o)
    0x0802fda2   0x00000002   Code   RO         4899    i.__scatterload_null  mc_w.l(handlers.o)
    0x0802fda4   0x0000000e   Code   RO         4900    i.__scatterload_zeroinit  mc_w.l(handlers.o)
    0x0802fdb2   0x00000002   PAD
    0x0802fdb4   0x0000000c   Code   RO         4833    i.__set_errno       mc_w.l(errno.o)
    0x0802fdc0   0x0000000c   Code   RO         2900    i._alpu_delay_ms    24cxx.o
    0x0802fdcc   0x00000044   Code   RO         2901    i._alpu_rand        24cxx.o
    0x0802fe10   0x00000050   Code   RO         2902    i._i2c_read         24cxx.o
    0x0802fe60   0x0000004a   Code   RO         2903    i._i2c_write        24cxx.o
    0x0802feaa   0x0000000e   Code   RO         4883    i._is_digit         mc_w.l(scanf_fp.o)
    0x0802feb8   0x00000010   Code   RO         4632    i.atan              m_wm.l(atan.o)
    0x0802fec8   0x0000003c   Code   RO         2995    i.delay_init        delay.o
    0x0802ff04   0x00000038   Code   RO         2996    i.delay_ms          delay.o
    0x0802ff3c   0x0000004c   Code   RO         2997    i.delay_us          delay.o
    0x0802ff88   0x0000004c   Code   RO         2998    i.delay_xms         delay.o
    0x0802ffd4   0x00000018   Code   RO         4676    i.fabs              m_wm.l(fabs.o)
    0x0802ffec   0x00000050   Code   RO         4720    i.free              mc_w.l(malloc.o)
    0x0803003c   0x000001b8   Code   RO         2560    i.main              main.o
    0x080301f4   0x0000006c   Code   RO         4721    i.malloc            mc_w.l(malloc.o)
    0x08030260   0x0000006e   Code   RO         4694    i.sqrt              m_wm.l(sqrt.o)
    0x080302ce   0x0000000a   Data   RO         2562    .constdata          main.o
    0x080302d8   0x00000010   Data   RO         4263    .constdata          basicfunc.o
    0x080302e8   0x00000010   Data   RO         4390    .constdata          gifilter.o
    0x080302f8   0x00000030   Data   RO         4555    .constdata          insnav.o
    0x08030328   0x00000050   Data   RO         4619    .constdata          m_wm.l(asin.o)
    0x08030378   0x00000098   Data   RO         4633    .constdata          m_wm.l(atan.o)
    0x08030410   0x00000030   Data   RO         4777    .constdata          m_wm.l(cos_i.o)
    0x08030440   0x00000008   Data   RO         4797    .constdata          m_wm.l(qnan.o)
    0x08030448   0x000000c8   Data   RO         4800    .constdata          m_wm.l(rred.o)
    0x08030510   0x00000028   Data   RO         4804    .constdata          m_wm.l(sin_i.o)
    0x08030538   0x00000081   Data   RO         4854    .constdata          mc_w.l(ctype_o.o)
    0x080305b9   0x00000003   PAD
    0x080305bc   0x00000004   Data   RO         4855    .constdata          mc_w.l(ctype_o.o)
    0x080305c0   0x00000165   Data   RO         2388    .conststring        commdata.o
    0x08030725   0x00000003   PAD
    0x08030728   0x00000020   Data   RO         4896    Region$$Table       anon$$obj.o


    Execution Region RW_IRAM1 (Base: 0x20000000, Size: 0x0000e450, Max: 0x00200000, ABSOLUTE, COMPRESSED[0x00000058])

    Base Addr    Size         Type   Attr      Idx    E Section Name        Object

    0x20000000   0x00000010   Data   RW          284    .data               stm32f4xx_rcc.o
    0x20000010   0x00000014   Data   RW         2389    .data               commdata.o
    0x20000024   0x00000004   PAD
    0x20000028   0x000001de   Data   RW         2563    .data               main.o
    0x20000206   0x00000016   Data   RW         2661    .data               stm32f4xx_it.o
    0x2000021c   0x00000008   Data   RW         2904    .data               24cxx.o
    0x20000224   0x00000004   Data   RW         2999    .data               delay.o
    0x20000228   0x0000001a   Data   RW         3184    .data               getnass.o
    0x20000242   0x00000030   Data   RW         3262    .data               getgps.o
    0x20000272   0x00000002   PAD
    0x20000274   0x00000010   Data   RW         3456    .data               getacc.o
    0x20000284   0x00000018   Data   RW         3586    .data               getgyr.o
    0x2000029c   0x0000001f   Data   RW         3765    .data               getimu.o
    0x200002bb   0x00000005   PAD
    0x200002c0   0x00000084   Data   RW         3896    .data               sendgps.o
    0x20000344   0x0000001c   Data   RW         4199    .data               ginavmain.o
    0x20000360   0x00000034   Data   RW         4391    .data               gifilter.o
    0x20000394   0x00000024   Data   RW         4499    .data               gnss.o
    0x200003b8   0x00000008   Data   RW         4520    .data               insalign.o
    0x200003c0   0x00000010   Data   RW         4556    .data               insnav.o
    0x200003d0   0x0000003b   Data   RW         4602    .data               ALPU-C-0FF.lib(alpu-c-0ff.o)
    0x2000040b   0x00000001   PAD
    0x2000040c   0x00000004   Data   RW         4710    .data               mc_w.l(rand.o)
    0x20000410   0x00000004   Data   RW         4829    .data               mc_w.l(mvars.o)
    0x20000414   0x00000004   Data   RW         4830    .data               mc_w.l(mvars.o)
    0x20000418   0x00000004   Data   RW         4834    .data               mc_w.l(errno.o)
    0x2000041c   0x00000004   PAD
    0x20000420   0x00001804   Zero   RW         2561    .bss                main.o
    0x20001c24   0x0000000c   Zero   RW         2660    .bss                stm32f4xx_it.o
    0x20001c30   0x00000041   Zero   RW         3261    .bss                getgps.o
    0x20001c71   0x00000003   PAD
    0x20001c74   0x00000018   Zero   RW         3764    .bss                getimu.o
    0x20001c8c   0x00000018   Zero   RW         4143    .bss                encryptid.o
    0x20001ca4   0x00000004   PAD
    0x20001ca8   0x00000048   Zero   RW         4198    .bss                ginavmain.o
    0x20001cf0   0x000007ec   Zero   RW         4389    .bss                gifilter.o
    0x200024dc   0x00000004   PAD
    0x200024e0   0x00000678   Zero   RW         4488    .bss                globalvars.o
    0x20002b58   0x00000030   Zero   RW         4498    .bss                gnss.o
    0x20002b88   0x00000018   Zero   RW         4519    .bss                insalign.o
    0x20002ba0   0x00000090   Zero   RW         4554    .bss                insnav.o
    0x20002c30   0x00000020   Zero   RW         4601    .bss                ALPU-C-0FF.lib(alpu-c-0ff.o)
    0x20002c50   0x00003600   Zero   RW         4134    HEAP                startup_stm32f401xx.o
    0x20006250   0x00008200   Zero   RW         4133    STACK               startup_stm32f401xx.o


==============================================================================

Image component sizes


      Code (inc. data)   RO Data    RW Data    ZI Data      Debug   Object Name

       234         14          0          8          0       2743   24cxx.o
      8084        250         16          0          0      14062   basicfunc.o
      7982       1160        357         20          0     218054   commdata.o
       104         34          0          0          0       1596   dataproc.o
       268         16          0          4          0       2359   delay.o
       264          0          0          0          0       2813   eeprom.o
       168         22          0          0         24       1030   encryptid.o
      2896        270          0         16          0      11520   getacc.o
     12348       1890          0         48         65      23776   getgps.o
      1384        200          0         24          0       5418   getgyr.o
      4136        460          0         31         24      11055   getimu.o
      2280        216          0         26          0      10043   getnass.o
     11948        518         16         52       2028      13634   gifilter.o
      4088        280          0         28         72       5208   ginavmain.o
         0          0          0          0       1656        242   globalvars.o
      4812        264          0         36         48       3277   gnss.o
      1664         88          0          0          0       7569   hw_config.o
      5060        266          0          8         24       4219   insalign.o
     24148        504         48         16        144       9800   insnav.o
       916        234         10        478       6148      52629   main.o
       200         32          0          0          0     293207   misc.o
       768        128          0          0          0       4362   myiic.o
     19780       1110          0        132          0      24905   sendgps.o
        60          6          0          0          0        575   spi.o
        36          8        404          0      47104        840   startup_stm32f401xx.o
       652         54          0          0          0       5724   stm32f4xx_dma.o
       184         16          0          0          0       2108   stm32f4xx_exti.o
       426         40          0          0          0       4520   stm32f4xx_flash.o
       222          0          0          0          0       2895   stm32f4xx_gpio.o
      1126        244          0         22         12       7405   stm32f4xx_it.o
        16          6          0          0          0        501   stm32f4xx_iwdg.o
       140         30          0          0          0       2234   stm32f4xx_pwr.o
       328         36          0         16          0       4659   stm32f4xx_rcc.o
       112          0          0          0          0       3510   stm32f4xx_spi.o
        64          4          0          0          0        660   stm32f4xx_syscfg.o
       180         28          0          0          0       3008   stm32f4xx_tim.o
       504          8          0          0          0       7336   stm32f4xx_usart.o
      2906        548          0          0          0      10805   stmflash.o
       336         32          0          0          0       1497   system_stm32f4xx.o

    ----------------------------------------------------------------------
    120850       9016        886        976      57360     781798   Object Totals
         0          0         32          0          0          0   (incl. Generated)
        26          0          3         11         11          0   (incl. Padding)

    ----------------------------------------------------------------------

      Code (inc. data)   RO Data    RW Data    ZI Data      Debug   Library Member Name

      1716         44          0         59         32       5342   alpu-c-0ff.o
       864         94         80          0          0        280   asin.o
       744        106        152          0          0        352   atan.o
       496         64          0          0          0        192   atan2.o
        56         12          0          0          0        132   atof.o
       200         20          0          0          0        164   cos.o
       368         46         48          0          0        200   cos_i.o
       104         16          0          0          0        496   dunder.o
        44          0          0          0          0        248   fabs.o
        48          0          0          0          0        124   fpclassify.o
       248          0          0          0          0        152   poly.o
         0          0          8          0          0          0   qnan.o
      1080        142        200          0          0        188   rred.o
       200         20          0          0          0        164   sin.o
       304         24         40          0          0        208   sin_i.o
       232          0          0          0          0        296   sqrt.o
        86          0          0          0          0          0   __dczerorl2.o
        28          0          0          0          0         68   _chval.o
        64          0          0          0          0         84   _sgetc.o
       158          0          0          0          0         92   _strtoul.o
        26          0          0          0          0         80   atoi.o
         8          4        133          0          0         68   ctype_o.o
         0          0          0          0          0          0   entry.o
         0          0          0          0          0          0   entry10a.o
         0          0          0          0          0          0   entry11a.o
         8          4          0          0          0          0   entry2.o
         4          0          0          0          0          0   entry5.o
         0          0          0          0          0          0   entry7b.o
         0          0          0          0          0          0   entry8b.o
         8          4          0          0          0          0   entry9a.o
        32         16          0          4          0        204   errno.o
        30          0          0          0          0          0   handlers.o
        36          8          0          0          0         68   init.o
        18          0          0          0          0         76   isspace_o.o
         0          0          0          0          0          0   iusefp.o
        30          0          0          0          0         68   llshl.o
        36          0          0          0          0         68   llsshr.o
        32          0          0          0          0         68   llushr.o
       188         20          0          0          0        160   malloc.o
        36          0          0          0          0         68   memcpya.o
        36          0          0          0          0        108   memseta.o
         0          0          0          8          0          0   mvars.o
        36         10          0          4          0        136   rand.o
       838         12          0          0          0        216   scanf_fp.o
        28          0          0          0          0         76   strcmp.o
       156         14          0          0          0        120   strtod.o
       112          0          0          0          0         88   strtol.o
        98          0          0          0          0         92   uldiv.o
        48          0          0          0          0         68   cdcmple.o
        48          0          0          0          0         68   cdrcmple.o
        56          0          0          0          0         88   d2f.o
       334          0          0          0          0        148   dadd.o
       222          0          0          0          0        100   ddiv.o
       186          0          0          0          0        176   depilogue.o
        62          0          0          0          0         80   dfixi.o
        50          0          0          0          0         76   dfixui.o
        48          0          0          0          0         68   dfixul.o
        34          0          0          0          0         76   dflti.o
        26          0          0          0          0         76   dfltui.o
        24          0          0          0          0         76   dfltul.o
       228          0          0          0          0         96   dmul.o
       162          0          0          0          0        100   dsqrt.o
        38          0          0          0          0         68   f2d.o
       110          0          0          0          0        168   fepilogue.o

    ----------------------------------------------------------------------
     10536        684        664         76         36      12078   Library Totals
        24          4          3          1          4          0   (incl. Padding)

    ----------------------------------------------------------------------

      Code (inc. data)   RO Data    RW Data    ZI Data      Debug   Library Name

      1716         44          0         59         32       5342   ALPU-C-0FF.lib
      4988        544        528          0          0       3196   m_wm.l
      2132         92        133         16          0       2008   mc_w.l
      1676          0          0          0          0       1532   mf_w.l

    ----------------------------------------------------------------------
     10536        684        664         76         36      12078   Library Totals

    ----------------------------------------------------------------------

==============================================================================


      Code (inc. data)   RO Data    RW Data    ZI Data      Debug   

    131386       9700       1550       1052      57396     764384   Grand Totals
    131386       9700       1550         88      57396     764384   ELF Image Totals (compressed)
    131386       9700       1550         88          0          0   ROM Totals

==============================================================================

    Total RO  Size (Code + RO Data)               132936 ( 129.82kB)
    Total RW  Size (RW Data + ZI Data)             58448 (  57.08kB)
    Total ROM Size (Code + RO Data + RW Data)     133024 ( 129.91kB)

==============================================================================

